C51 COMPILER V7.06   OEM_EC6266                                                            07/06/2010 09:59:47 PAGE 1   


C51 COMPILER V7.06, COMPILATION OF MODULE OEM_EC6266
OBJECT MODULE PLACED IN SOURCE\OEM_EC6266.OBJ
COMPILER INVOKED BY: C:\Keil\C51\BIN\c51.exe SOURCE\OEM_EC6266.C LA WL(1) CD OT(8,SIZE) OR

stmt level    source

   1          /*-----------------------------------------------------------------------------
   2           * Filename: OEM_EC6266.C
   3           * Function: OEM EC CMD HANDLE
   4           *
   5           * Copyright (c) 2006-2009, ITE Tech. Inc. All Rights Reserved.
   6           *---------------------------------------------------------------------------*/
   7          #include "CORE_INCLUDE.H"
   8          #include "OEM_INCLUDE.H"
   9          
  10          //----------------------------------------------------------------------------
  11          // OEM for ACPI Read EC RAM Space
  12          //----------------------------------------------------------------------------
  13          BYTE Read_MapECSpace(BYTE MapIndex)
  14          {
  15   1          if(MapIndex>=0x80)
  16   1          {
  17   2              Tmp_XPntr=((SYS_MISC1>>0x04)*0x80+(MapIndex-0x80));
  18   2          }
  19   1          else
  20   1          {
  21   2              Tmp_XPntr=(0x300|MapIndex);
  22   2          }
  23   1          return(*Tmp_XPntr);
  24   1      
  25   1      }
  26          
  27          //----------------------------------------------------------------------------
  28          // OEM for ACPI Write EC RAM Space
  29          //----------------------------------------------------------------------------
  30          void Write_MapECSpace(BYTE MapIndex, BYTE data1)
  31          {
  32   1          if(MapIndex>=0x80)
  33   1          {
  34   2              Tmp_XPntr=((SYS_MISC1>>0x04)*0x80+(MapIndex-0x80));
  35   2          }
  36   1          else
  37   1          {
  38   2              Tmp_XPntr=(0x300|MapIndex);
  39   2          }
  40   1          *Tmp_XPntr = data1;
  41   1      
  42   1      }
  43          //----------------------------------------------------------------------------
  44          
  45          #if SUPPORT_MATRIX_UTILITY
  46          //----------------------------------------------------------------------------
  47          // Read external ram Space
  48          //----------------------------------------------------------------------------
  49          void Read_External_Ram(void)
  50          {
  51   1          Tmp_XPntr=((PM1Data1<<8)+PM1Data);  //  address low
  52   1          PM1DO = *Tmp_XPntr;
  53   1      }
  54          //----------------------------------------------------------------------------
  55          
C51 COMPILER V7.06   OEM_EC6266                                                            07/06/2010 09:59:47 PAGE 2   

  56          //----------------------------------------------------------------------------
  57          // Write external ram Space
  58          //----------------------------------------------------------------------------
  59          void Write_External_Ram(void)
  60          {
  61   1          Tmp_XPntr=((PM1Data2<<8)+PM1Data1);
  62   1          *Tmp_XPntr=PM1Data;
  63   1      }
  64          #endif
  65          //----------------------------------------------------------------------------
  66          
  67          
  68          //----------------------------------------------------------------------------
  69          /* Customer : ??? Model: XXX
  70          //----------------------------------------------------------------------------
  71           * OEM Embedded Controller Commands Related to PC Systems  (Port 66h)
  72          //----------------------------------------------------------------------------
  73           * Command - Description
  74          //----------------------------------------------------------------------------
  75           * EC6266_CMD_85:
  76           * EC6266_CMD_86:
  77           * Cmd_87:
  78           * Cmd_88:
  79           * Cmd_89:
  80           * Cmd_8A:
  81           * Cmd_8B:
  82           * Cmd_8C:
  83           * Cmd_8D:
  84           * Cmd_8E:
  85           * Cmd_8F:
  86           * Cmd_90: Notice
  87           * Cmd_91: Notice
  88           * Cmd_92: Notice
  89           * Cmd_93: Notice
  90           * Cmd_94:
  91           * Cmd_95:
  92           * Cmd_96:
  93           * Cmd_97:
  94           * Cmd_98:
  95           * Cmd_99:
  96           * Cmd_9A:
  97           * Cmd_9B:
  98           * Cmd_9C:
  99           * Cmd_9D:
 100           * Cmd_9E:
 101           * Cmd_9F:
 102          
 103          //----------------------------------------------------------------------------
 104          */
 105          //----------------------------------------------------------------------------
 106          // Handle EC6266 command 0x. (Reserved)
 107          //----------------------------------------------------------------------------
 108          //void EC6266_Cmd_00(void)
 109          //{
 110          //}
 111          //----------------------------------------------------------------------------
 112          //----------------------------------------------------------------------------
 113          // Handle EC6266 command 1x. (Reserved)
 114          //----------------------------------------------------------------------------
 115          //void EC6266_Cmd_10(void)
 116          //{
 117          //}
C51 COMPILER V7.06   OEM_EC6266                                                            07/06/2010 09:59:47 PAGE 3   

 118          //----------------------------------------------------------------------------
 119          //----------------------------------------------------------------------------
 120          // Handle EC6266 command 2x. (Reserved)
 121          //----------------------------------------------------------------------------
 122          //void EC6266_Cmd_20(void)
 123          //{
 124          //}
 125          //----------------------------------------------------------------------------
 126          //----------------------------------------------------------------------------
 127          // Handle EC6266 command 3x. (Reserved)
 128          //----------------------------------------------------------------------------
 129          //void EC6266_Cmd_30(void)
 130          //{
 131          //}
 132          //----------------------------------------------------------------------------
 133          //----------------------------------------------------------------------------
 134          // Handle EC6266 command 4x. (Reserved)
 135          //----------------------------------------------------------------------------
 136          //void EC6266_Cmd_40(void)
 137          //{
 138          //}
 139          //----------------------------------------------------------------------------
 140          //----------------------------------------------------------------------------
 141          // Handle EC6266 command 5x. (Reserved)
 142          //----------------------------------------------------------------------------
 143          //void EC6266_Cmd_50(void)
 144          //{
 145          //}
 146          //----------------------------------------------------------------------------
 147          //----------------------------------------------------------------------------
 148          // Handle EC6266 command 6x. (Reserved)
 149          //----------------------------------------------------------------------------
 150          //void EC6266_Cmd_60(void)
 151          //{
 152          //}
 153          //----------------------------------------------------------------------------
 154          //----------------------------------------------------------------------------
 155          // Handle EC6266 command 7x. (Reserved)
 156          //----------------------------------------------------------------------------
 157          //void EC6266_Cmd_70(void)
 158          //{
 159          //}
 160          //----------------------------------------------------------------------------
 161          
 162          //****************************************************************************
 163          //----------------------------------------------------------------------------
 164          // EC Command 0x80-0x84: Standard ACPI EC Command (CORE_ACPI.C)
 165          //----------------------------------------------------------------------------
 166          //****************************************************************************
 167          
 168          //----------------------------------------------------------------------------
 169          // EC Command 0x85:
 170          //----------------------------------------------------------------------------
 171          void EC6266_CMD_85(void)
 172          {
 173   1      
 174   1      }
 175          
 176          //----------------------------------------------------------------------------
 177          // EC Command 0x86: Quanta only set ACPI flag
 178          //----------------------------------------------------------------------------
 179          void EC6266_CMD_86(void)
C51 COMPILER V7.06   OEM_EC6266                                                            07/06/2010 09:59:47 PAGE 4   

 180          {
 181   1              //SetFlag(SYS_MISC1,ACPI_OS);
 182   1      }
 183          
 184          //----------------------------------------------------------------------------
 185          // EC Command 0x87: Quanta only clear ACPI flag
 186          //----------------------------------------------------------------------------
 187          void EC6266_CMD_87(void)
 188          {
 189   1              //ClearFlag(SYS_MISC1,ACPI_OS);
 190   1      }
 191          
 192          //----------------------------------------------------------------------------
 193          // EC Command 0x88:
 194          //----------------------------------------------------------------------------
 195          void EC6266_CMD_88(void)
 196          {
 197   1      
 198   1      }
 199          
 200          //----------------------------------------------------------------------------
 201          // EC Command 0x89:
 202          //----------------------------------------------------------------------------
 203          void EC6266_CMD_89(void)
 204          {
 205   1      
 206   1      }
 207          
 208          //----------------------------------------------------------------------------
 209          // EC Command 0x8A:
 210          //----------------------------------------------------------------------------
 211          void EC6266_CMD_8A(void)
 212          {
 213   1      
 214   1      }
 215          
 216          //----------------------------------------------------------------------------
 217          // EC Command 0x8B:
 218          //----------------------------------------------------------------------------
 219          void EC6266_CMD_8B(void)
 220          {
 221   1      
 222   1      }
 223          
 224          //----------------------------------------------------------------------------
 225          // EC Command 0x8C:
 226          //----------------------------------------------------------------------------
 227          void EC6266_CMD_8C(void)
 228          {
 229   1      
 230   1      }
 231          
 232          //----------------------------------------------------------------------------
 233          // EC Command 0x8D:
 234          //----------------------------------------------------------------------------
 235          void EC6266_CMD_8D(void)
 236          {
 237   1      
 238   1      }
 239          
 240          //----------------------------------------------------------------------------
 241          // EC Command 0x8E:
C51 COMPILER V7.06   OEM_EC6266                                                            07/06/2010 09:59:47 PAGE 5   

 242          //----------------------------------------------------------------------------
 243          void EC6266_CMD_8E(void)
 244          {
 245   1      
 246   1      }
 247          
 248          //----------------------------------------------------------------------------
 249          // EC Command 0x8F:
 250          //----------------------------------------------------------------------------
 251          void EC6266_CMD_8F(void)
 252          {
 253   1      
 254   1      }
 255          
 256          //----------------------------------------------------------------------------
 257          // EC Command 0x90:
 258          //----------------------------------------------------------------------------
 259          void EC6266_CMD_90(void)
 260          {
 261   1      
 262   1      }
 263          
 264          //----------------------------------------------------------------------------
 265          // EC Command 0x91:
 266          //----------------------------------------------------------------------------
 267          void EC6266_CMD_91(void)
 268          {
 269   1      
 270   1      }
 271          
 272          //----------------------------------------------------------------------------
 273          // EC Command 0x92:
 274          //----------------------------------------------------------------------------
 275          void EC6266_CMD_92(void)
 276          {
 277   1          #if SUPPORT_MATRIX_UTILITY
 278   1          PM1Step = _PM1_STEP_4;
 279   1          PM1StepSP = 2;
 280   1          #endif
 281   1      }
 282          
 283          //----------------------------------------------------------------------------
 284          // EC Command 0x93:
 285          //----------------------------------------------------------------------------
 286          void EC6266_CMD_93(void)
 287          {
 288   1          #if SUPPORT_MATRIX_UTILITY
 289   1          PM1Step = _PM1_STEP_5;
 290   1          PM1StepSP = 3;
 291   1          #endif
 292   1      }
 293          
 294          //----------------------------------------------------------------------------
 295          // EC Command 0x94:
 296          //----------------------------------------------------------------------------
 297          void EC6266_CMD_94(void)
 298          {
 299   1          #if RamCode_useEC
                  RamCodePort = 0x66;
                  RunCodeInRAM();
                  #endif
 303   1      }
C51 COMPILER V7.06   OEM_EC6266                                                            07/06/2010 09:59:47 PAGE 6   

 304          
 305          //----------------------------------------------------------------------------
 306          // EC Command 0x95:
 307          //----------------------------------------------------------------------------
 308          void EC6266_CMD_95(void)
 309          {
 310   1      
 311   1      }
 312          
 313          //----------------------------------------------------------------------------
 314          // EC Command 0x96:
 315          //----------------------------------------------------------------------------
 316          void EC6266_CMD_96(void)
 317          {
 318   1      
 319   1      }
 320          
 321          //----------------------------------------------------------------------------
 322          // EC Command 0x97:
 323          //----------------------------------------------------------------------------
 324          void EC6266_CMD_97(void)
 325          {
 326   1      
 327   1      }
 328          
 329          //----------------------------------------------------------------------------
 330          // EC Command 0x98:
 331          //----------------------------------------------------------------------------
 332          void EC6266_CMD_98(void)
 333          {
 334   1      
 335   1      }
 336          
 337          //----------------------------------------------------------------------------
 338          // EC Command 0x99:
 339          //----------------------------------------------------------------------------
 340          void EC6266_CMD_99(void)
 341          {
 342   1      
 343   1      }
 344          
 345          //----------------------------------------------------------------------------
 346          // EC Command 0x9A:
 347          //----------------------------------------------------------------------------
 348          void EC6266_CMD_9A(void)
 349          {
 350   1      
 351   1      }
 352          
 353          //----------------------------------------------------------------------------
 354          // EC Command 0x9B:
 355          //----------------------------------------------------------------------------
 356          void EC6266_CMD_9B(void)
 357          {
 358   1      
 359   1      }
 360          
 361          //----------------------------------------------------------------------------
 362          // EC Command 0x9C:
 363          //----------------------------------------------------------------------------
 364          void EC6266_CMD_9C(void)
 365          {
C51 COMPILER V7.06   OEM_EC6266                                                            07/06/2010 09:59:47 PAGE 7   

 366   1      
 367   1      }
 368          
 369          //----------------------------------------------------------------------------
 370          // EC Command 0x9D:
 371          //----------------------------------------------------------------------------
 372          void EC6266_CMD_9D(void)
 373          {
 374   1      
 375   1      }
 376          
 377          //----------------------------------------------------------------------------
 378          // EC Command 0x9E:
 379          //----------------------------------------------------------------------------
 380          void EC6266_CMD_9E(void)
 381          {
 382   1      
 383   1      }
 384          
 385          //----------------------------------------------------------------------------
 386          // EC Command 0x9F:
 387          //----------------------------------------------------------------------------
 388          void EC6266_CMD_9F(void)
 389          {
 390   1      
 391   1      }
 392          
 393          //----------------------------------------------------------------------------
 394          // EC Command 0xA0:
 395          //----------------------------------------------------------------------------
 396          void EC6266_CMD_A0(void)
 397          {
 398   1      
 399   1      }
 400          
 401          //----------------------------------------------------------------------------
 402          // EC Command 0xA1:
 403          //----------------------------------------------------------------------------
 404          void EC6266_CMD_A1(void)
 405          {
 406   1      
 407   1      }
 408          
 409          //----------------------------------------------------------------------------
 410          // EC Command 0xA2:
 411          //----------------------------------------------------------------------------
 412          void EC6266_CMD_A2(void)
 413          {
 414   1      
 415   1      }
 416          
 417          //----------------------------------------------------------------------------
 418          // EC Command 0xA3:
 419          //----------------------------------------------------------------------------
 420          void EC6266_CMD_A3(void)
 421          {
 422   1      
 423   1      }
 424          
 425          //----------------------------------------------------------------------------
 426          // EC Command 0xA4:
 427          //----------------------------------------------------------------------------
C51 COMPILER V7.06   OEM_EC6266                                                            07/06/2010 09:59:47 PAGE 8   

 428          void EC6266_CMD_A4(void)
 429          {
 430   1      
 431   1      
 432   1      }
 433          
 434          //----------------------------------------------------------------------------
 435          // EC Command 0xA5:
 436          //----------------------------------------------------------------------------
 437          void EC6266_CMD_A5(void)
 438          {
 439   1      
 440   1      }
 441          
 442          //----------------------------------------------------------------------------
 443          // EC Command 0xA6:
 444          //----------------------------------------------------------------------------
 445          void EC6266_CMD_A6(void)
 446          {
 447   1      
 448   1      }
 449          
 450          //----------------------------------------------------------------------------
 451          // EC Command 0xA7:
 452          //----------------------------------------------------------------------------
 453          void EC6266_CMD_A7(void)
 454          {
 455   1      
 456   1      }
 457          
 458          //----------------------------------------------------------------------------
 459          // EC Command 0xA8:
 460          //----------------------------------------------------------------------------
 461          void EC6266_CMD_A8(void)
 462          {
 463   1      
 464   1      }
 465          
 466          //----------------------------------------------------------------------------
 467          // EC Command 0xA9:
 468          //----------------------------------------------------------------------------
 469          void EC6266_CMD_A9(void)
 470          {
 471   1      
 472   1      }
 473          
 474          //----------------------------------------------------------------------------
 475          // EC Command 0xAA:
 476          //----------------------------------------------------------------------------
 477          void EC6266_CMD_AA(void)
 478          {
 479   1      
 480   1      }
 481          
 482          //----------------------------------------------------------------------------
 483          // EC Command 0xAB:
 484          //----------------------------------------------------------------------------
 485          void EC6266_CMD_AB(void)
 486          {
 487   1      
 488   1      }
 489          
C51 COMPILER V7.06   OEM_EC6266                                                            07/06/2010 09:59:47 PAGE 9   

 490          //----------------------------------------------------------------------------
 491          // EC Command 0xAC:
 492          //----------------------------------------------------------------------------
 493          void EC6266_CMD_AC(void)
 494          {
 495   1      
 496   1      }
 497          
 498          //----------------------------------------------------------------------------
 499          // EC Command 0xAD:
 500          //----------------------------------------------------------------------------
 501          void EC6266_CMD_AD(void)
 502          {
 503   1      
 504   1      }
 505          
 506          //----------------------------------------------------------------------------
 507          // EC Command 0xAE:
 508          //----------------------------------------------------------------------------
 509          void EC6266_CMD_AE(void)
 510          {
 511   1      
 512   1      }
 513          
 514          //----------------------------------------------------------------------------
 515          // EC Command 0xAF:
 516          //----------------------------------------------------------------------------
 517          void EC6266_CMD_AF(void)
 518          {
 519   1      
 520   1      }
 521          
 522          //----------------------------------------------------------------------------
 523          // EC Command 0xB0:
 524          //----------------------------------------------------------------------------
 525          void EC6266_CMD_B0(void)
 526          {
 527   1      
 528   1      }
 529          
 530          //----------------------------------------------------------------------------
 531          // EC Command 0xB1:
 532          //----------------------------------------------------------------------------
 533          void EC6266_CMD_B1(void)
 534          {
 535   1      
 536   1      }
 537          
 538          //----------------------------------------------------------------------------
 539          // EC Command 0xB2:
 540          //----------------------------------------------------------------------------
 541          void EC6266_CMD_B2(void)
 542          {
 543   1      
 544   1      }
 545          
 546          //----------------------------------------------------------------------------
 547          // EC Command 0xB3:
 548          //----------------------------------------------------------------------------
 549          void EC6266_CMD_B3(void)
 550          {
 551   1      
C51 COMPILER V7.06   OEM_EC6266                                                            07/06/2010 09:59:47 PAGE 10  

 552   1      }
 553          
 554          //----------------------------------------------------------------------------
 555          // EC Command 0xB4:
 556          //----------------------------------------------------------------------------
 557          void EC6266_CMD_B4(void)
 558          {
 559   1          #if RamCode_useEC
                  RamCodePort = 0x66;
                  RunCodeInRAM();
                  #endif
 563   1      }
 564          
 565          //----------------------------------------------------------------------------
 566          // EC Command 0xB5:
 567          //----------------------------------------------------------------------------
 568          void EC6266_CMD_B5(void)
 569          {
 570   1      
 571   1      }
 572          
 573          //----------------------------------------------------------------------------
 574          // EC Command 0xB6:
 575          //----------------------------------------------------------------------------
 576          void EC6266_CMD_B6(void)
 577          {
 578   1      
 579   1      }
 580          
 581          //----------------------------------------------------------------------------
 582          // EC Command 0xB7:
 583          //----------------------------------------------------------------------------
 584          void EC6266_CMD_B7(void)
 585          {
 586   1      
 587   1      }
 588          
 589          //----------------------------------------------------------------------------
 590          // EC Command 0xB8:
 591          //----------------------------------------------------------------------------
 592          void EC6266_CMD_B8(void)
 593          {
 594   1      
 595   1      }
 596          
 597          //----------------------------------------------------------------------------
 598          // EC Command 0xB9:
 599          //----------------------------------------------------------------------------
 600          void EC6266_CMD_B9(void)
 601          {
 602   1      
 603   1      }
 604          
 605          //----------------------------------------------------------------------------
 606          // EC Command 0xBA:
 607          //----------------------------------------------------------------------------
 608          void EC6266_CMD_BA(void)
 609          {
 610   1      
 611   1      }
 612          
 613          //----------------------------------------------------------------------------
C51 COMPILER V7.06   OEM_EC6266                                                            07/06/2010 09:59:47 PAGE 11  

 614          // EC Command 0xBB:
 615          //----------------------------------------------------------------------------
 616          void EC6266_CMD_BB(void)
 617          {
 618   1      
 619   1      }
 620          
 621          //----------------------------------------------------------------------------
 622          // EC Command 0xBC:
 623          //----------------------------------------------------------------------------
 624          void EC6266_CMD_BC(void)
 625          {
 626   1      
 627   1      }
 628          
 629          //----------------------------------------------------------------------------
 630          // EC Command 0xBD:
 631          //----------------------------------------------------------------------------
 632          void EC6266_CMD_BD(void)
 633          {
 634   1      
 635   1      }
 636          
 637          //----------------------------------------------------------------------------
 638          // EC Command 0xBE:
 639          //----------------------------------------------------------------------------
 640          void EC6266_CMD_BE(void)
 641          {
 642   1      
 643   1      }
 644          
 645          //----------------------------------------------------------------------------
 646          // EC Command 0xBF:
 647          //----------------------------------------------------------------------------
 648          void EC6266_CMD_BF(void)
 649          {
 650   1      
 651   1      }
 652          
 653          //----------------------------------------------------------------------------
 654          // EC Command 0xC0:
 655          //----------------------------------------------------------------------------
 656          void EC6266_CMD_C0(void)
 657          {
 658   1      
 659   1      }
 660          
 661          //----------------------------------------------------------------------------
 662          // EC Command 0xC1:
 663          //----------------------------------------------------------------------------
 664          void EC6266_CMD_C1(void)
 665          {
 666   1      
 667   1      }
 668          
 669          //----------------------------------------------------------------------------
 670          // EC Command 0xC2:
 671          //----------------------------------------------------------------------------
 672          void EC6266_CMD_C2(void)
 673          {
 674   1      
 675   1      }
C51 COMPILER V7.06   OEM_EC6266                                                            07/06/2010 09:59:47 PAGE 12  

 676          
 677          //----------------------------------------------------------------------------
 678          // EC Command 0xC3:
 679          //----------------------------------------------------------------------------
 680          void EC6266_CMD_C3(void)
 681          {
 682   1      
 683   1      }
 684          
 685          //----------------------------------------------------------------------------
 686          // EC Command 0xC4:
 687          //----------------------------------------------------------------------------
 688          void EC6266_CMD_C4(void)
 689          {
 690   1      
 691   1      }
 692          
 693          //----------------------------------------------------------------------------
 694          // EC Command 0xC5:
 695          //----------------------------------------------------------------------------
 696          void EC6266_CMD_C5(void)
 697          {
 698   1      
 699   1      }
 700          
 701          //----------------------------------------------------------------------------
 702          // EC Command 0xC6:
 703          //----------------------------------------------------------------------------
 704          void EC6266_CMD_C6(void)
 705          {
 706   1      
 707   1      }
 708          
 709          //----------------------------------------------------------------------------
 710          // EC Command 0xC7:
 711          //----------------------------------------------------------------------------
 712          void EC6266_CMD_C7(void)
 713          {
 714   1      
 715   1      }
 716          
 717          //----------------------------------------------------------------------------
 718          // EC Command 0xC8:
 719          //----------------------------------------------------------------------------
 720          void EC6266_CMD_C8(void)
 721          {
 722   1      
 723   1      }
 724          
 725          //----------------------------------------------------------------------------
 726          // EC Command 0xC9:
 727          //----------------------------------------------------------------------------
 728          void EC6266_CMD_C9(void)
 729          {
 730   1      
 731   1      }
 732          
 733          //----------------------------------------------------------------------------
 734          // EC Command 0xCA:
 735          //----------------------------------------------------------------------------
 736          void EC6266_CMD_CA(void)
 737          {
C51 COMPILER V7.06   OEM_EC6266                                                            07/06/2010 09:59:47 PAGE 13  

 738   1      
 739   1      }
 740          
 741          //----------------------------------------------------------------------------
 742          // EC Command 0xCB:
 743          //----------------------------------------------------------------------------
 744          void EC6266_CMD_CB(void)
 745          {
 746   1      
 747   1      }
 748          
 749          //----------------------------------------------------------------------------
 750          // EC Command 0xCC:
 751          //----------------------------------------------------------------------------
 752          void EC6266_CMD_CC(void)
 753          {
 754   1      
 755   1      }
 756          
 757          //----------------------------------------------------------------------------
 758          // EC Command 0xCD:
 759          //----------------------------------------------------------------------------
 760          void EC6266_CMD_CD(void)
 761          {
 762   1      
 763   1      }
 764          
 765          //----------------------------------------------------------------------------
 766          // EC Command 0xCE:
 767          //----------------------------------------------------------------------------
 768          void EC6266_CMD_CE(void)
 769          {
 770   1      
 771   1      }
 772          
 773          //----------------------------------------------------------------------------
 774          // EC Command 0xCF:
 775          //----------------------------------------------------------------------------
 776          void EC6266_CMD_CF(void)
 777          {
 778   1      
 779   1      }
 780          
 781          //----------------------------------------------------------------------------
 782          // EC Command 0xD0:
 783          //----------------------------------------------------------------------------
 784          void EC6266_CMD_D0(void)
 785          {
 786   1      
 787   1      }
 788          
 789          //----------------------------------------------------------------------------
 790          // EC Command 0xD1:
 791          //----------------------------------------------------------------------------
 792          void EC6266_CMD_D1(void)
 793          {
 794   1          SPCTRL1 = 0x03;     //Enable I2EC R/W
 795   1          BADRSEL = 0x00;     //0x00:2E/2F
 796   1      }
 797          
 798          //----------------------------------------------------------------------------
 799          // EC Command 0xD2:
C51 COMPILER V7.06   OEM_EC6266                                                            07/06/2010 09:59:47 PAGE 14  

 800          //----------------------------------------------------------------------------
 801          void EC6266_CMD_D2(void)
 802          {
 803   1          SPCTRL1 = 0x03;     //Enable I2EC R/W
 804   1          BADRSEL = 0x01;     //0x01:4E/4F
 805   1      }
 806          
 807          //----------------------------------------------------------------------------
 808          // EC Command 0xD3:
 809          //----------------------------------------------------------------------------
 810          void EC6266_CMD_D3(void)
 811          {
 812   1      
 813   1      }
 814          
 815          //----------------------------------------------------------------------------
 816          // EC Command 0xD4:
 817          //----------------------------------------------------------------------------
 818          void EC6266_CMD_D4(void)
 819          {
 820   1      
 821   1      }
 822          
 823          //----------------------------------------------------------------------------
 824          // EC Command 0xD5:
 825          //----------------------------------------------------------------------------
 826          void EC6266_CMD_D5(void)
 827          {
 828   1      
 829   1      }
 830          
 831          //----------------------------------------------------------------------------
 832          // EC Command 0xD6:
 833          //----------------------------------------------------------------------------
 834          void EC6266_CMD_D6(void)
 835          {
 836   1      
 837   1      }
 838          
 839          //----------------------------------------------------------------------------
 840          // EC Command 0xD7:
 841          //----------------------------------------------------------------------------
 842          void EC6266_CMD_D7(void)
 843          {
 844   1      
 845   1      }
 846          
 847          //----------------------------------------------------------------------------
 848          // EC Command 0xD8:
 849          //----------------------------------------------------------------------------
 850          void EC6266_CMD_D8(void)
 851          {
 852   1      
 853   1      }
 854          
 855          //----------------------------------------------------------------------------
 856          // EC Command 0xD9:
 857          //----------------------------------------------------------------------------
 858          void EC6266_CMD_D9(void)
 859          {
 860   1      
 861   1      }
C51 COMPILER V7.06   OEM_EC6266                                                            07/06/2010 09:59:47 PAGE 15  

 862          
 863          //----------------------------------------------------------------------------
 864          // EC Command 0xDA:
 865          //----------------------------------------------------------------------------
 866          void EC6266_CMD_DA(void)
 867          {
 868   1      
 869   1      }
 870          
 871          //----------------------------------------------------------------------------
 872          // EC Command 0xDB:
 873          //----------------------------------------------------------------------------
 874          void EC6266_CMD_DB(void)
 875          {
 876   1      
 877   1      }
 878          
 879          //----------------------------------------------------------------------------
 880          // EC Command 0xDC:
 881          //----------------------------------------------------------------------------
 882          void EC6266_CMD_DC(void)
 883          {
 884   1          #if SUPPORT_EC_FLASH_CODE
 885   1          ITE_Flash_Utility();
 886   1          #endif
 887   1      }
 888          
 889          //----------------------------------------------------------------------------
 890          // EC Command 0xDD:
 891          //----------------------------------------------------------------------------
 892          void EC6266_CMD_DD(void)
 893          {
 894   1          /* Sample Code for OEM Read/Write SPI ROM */
 895   1          //#if SUPPORT_EC_SPI_MODULE
 896   1          //FSPIReadID();
 897   1          //#endif
 898   1      }
 899          
 900          //----------------------------------------------------------------------------
 901          // EC Command 0xDE:
 902          //----------------------------------------------------------------------------
 903          void EC6266_CMD_DE(void)
 904          {
 905   1          /* Sample Code for OEM Read/Write SPI ROM */
 906   1          //#if SUPPORT_EC_SPI_MODULE
 907   1          //FSPIRomErase( 0x20, 0x00, 0xA0, 0x00 );
 908   1          //#endif
 909   1      }
 910          
 911          //----------------------------------------------------------------------------
 912          // EC Command 0xDF:
 913          //----------------------------------------------------------------------------
 914          void EC6266_CMD_DF(void)
 915          {
 916   1          /* Sample Code for OEM Read/Write SPI ROM */
 917   1          //#if SUPPORT_EC_SPI_MODULE
 918   1          //FSPIRomWritePage( 0x00, 0xA0, 0x00, 128, 0x0000  );
 919   1          //#endif
 920   1      }
 921          
 922          //----------------------------------------------------------------------------
 923          // EC Command 0xE0:
C51 COMPILER V7.06   OEM_EC6266                                                            07/06/2010 09:59:47 PAGE 16  

 924          //----------------------------------------------------------------------------
 925          void EC6266_CMD_E0(void)
 926          {
 927   1          /* Sample Code for OEM Read SPI ROM */
 928   1          //#if SUPPORT_EC_SPI_MODULE
 929   1          /*
 930   1          BYTE i;
 931   1      
 932   1          ECINDAR3 = 0x00;
 933   1          ECINDAR2 = 0x00;
 934   1          ECINDAR1 = 0xA0;
 935   1          ECINDAR0 = 0x00;
 936   1      
 937   1          for(i=0; i<128; i++)
 938   1          {
 939   1              EEP_MEM[i] = ECINDDR;
 940   1      
 941   1              ECINDAR0++;
 942   1      
 943   1              if(ECINDAR0 == 0)
 944   1              {
 945   1                  ECINDAR1++;
 946   1                  if(ECINDAR1 == 0)
 947   1                  {
 948   1                      ECINDAR2++;
 949   1                  }
 950   1              }
 951   1          }
 952   1          */
 953   1      }
 954          
 955          //----------------------------------------------------------------------------
 956          // EC Command 0xE1:
 957          //----------------------------------------------------------------------------
 958          void EC6266_CMD_E1(void)
 959          {
 960   1          //CacheDma( 0, FSPIReadID );      //Enable 512B DMA for "FSPIReadID" code.
 961   1          //FSPIReadID();
 962   1          //FSPIRomErase( 0x20, 0x00, 0x00, 0x00 );
 963   1      }
 964          
 965          //----------------------------------------------------------------------------
 966          // EC Command 0xE2:
 967          //----------------------------------------------------------------------------
 968          void EC6266_CMD_E2(void)
 969          {
 970   1      
 971   1      }
 972          
 973          //----------------------------------------------------------------------------
 974          // EC Command 0xE3:
 975          //----------------------------------------------------------------------------
 976          void EC6266_CMD_E3(void)
 977          {
 978   1      
 979   1      }
 980          
 981          //----------------------------------------------------------------------------
 982          // EC Command 0xE4:
 983          //----------------------------------------------------------------------------
 984          void EC6266_CMD_E4(void)
 985          {
C51 COMPILER V7.06   OEM_EC6266                                                            07/06/2010 09:59:47 PAGE 17  

 986   1      
 987   1      }
 988          
 989          //----------------------------------------------------------------------------
 990          // EC Command 0xE5:
 991          //----------------------------------------------------------------------------
 992          void EC6266_CMD_E5(void)
 993          {
 994   1      
 995   1      }
 996          
 997          //----------------------------------------------------------------------------
 998          // EC Command 0xE6:
 999          //----------------------------------------------------------------------------
1000          void EC6266_CMD_E6(void)
1001          {
1002   1      
1003   1      }
1004          
1005          //----------------------------------------------------------------------------
1006          // EC Command 0xE7:
1007          //----------------------------------------------------------------------------
1008          void EC6266_CMD_E7(void)
1009          {
1010   1      
1011   1      }
1012          
1013          //----------------------------------------------------------------------------
1014          // EC Command 0xE8:
1015          //----------------------------------------------------------------------------
1016          void EC6266_CMD_E8(void)
1017          {
1018   1      
1019   1      }
1020          
1021          //----------------------------------------------------------------------------
1022          // EC Command 0xE9:
1023          //----------------------------------------------------------------------------
1024          void EC6266_CMD_E9(void)
1025          {
1026   1      
1027   1      }
1028          
1029          //----------------------------------------------------------------------------
1030          // EC Command 0xEA:
1031          //----------------------------------------------------------------------------
1032          void EC6266_CMD_EA(void)
1033          {
1034   1      
1035   1      }
1036          
1037          //----------------------------------------------------------------------------
1038          // EC Command 0xEB:
1039          //----------------------------------------------------------------------------
1040          void EC6266_CMD_EB(void)
1041          {
1042   1      
1043   1      }
1044          
1045          //----------------------------------------------------------------------------
1046          // EC Command 0xEC:
1047          //----------------------------------------------------------------------------
C51 COMPILER V7.06   OEM_EC6266                                                            07/06/2010 09:59:47 PAGE 18  

1048          void EC6266_CMD_EC(void)
1049          {
1050   1      
1051   1      }
1052          
1053          //----------------------------------------------------------------------------
1054          // EC Command 0xED:
1055          //----------------------------------------------------------------------------
1056          void EC6266_CMD_ED(void)
1057          {
1058   1      
1059   1      }
1060          
1061          //----------------------------------------------------------------------------
1062          // EC Command 0xEE:
1063          //----------------------------------------------------------------------------
1064          void EC6266_CMD_EE(void)
1065          {
1066   1      
1067   1      }
1068          
1069          //----------------------------------------------------------------------------
1070          // EC Command 0xEF:
1071          //----------------------------------------------------------------------------
1072          void EC6266_CMD_EF(void)
1073          {
1074   1      
1075   1      }
1076          
1077          //----------------------------------------------------------------------------
1078          // EC Command 0xF0:
1079          //----------------------------------------------------------------------------
1080          void EC6266_CMD_F0(void)
1081          {
1082   1          #if SUPPORT_MATRIX_UTILITY
1083   1          KeyScanACK = 0xFF;
1084   1          #endif
1085   1      }
1086          
1087          //----------------------------------------------------------------------------
1088          // EC Command 0xF1:
1089          //----------------------------------------------------------------------------
1090          void EC6266_CMD_F1(void)
1091          {
1092   1      
1093   1      }
1094          
1095          //----------------------------------------------------------------------------
1096          // EC Command 0xF2:
1097          //----------------------------------------------------------------------------
1098          void EC6266_CMD_F2(void)
1099          {
1100   1      
1101   1      }
1102          
1103          //----------------------------------------------------------------------------
1104          // EC Command 0xF3:
1105          //----------------------------------------------------------------------------
1106          void EC6266_CMD_F3(void)
1107          {
1108   1      
1109   1      }
C51 COMPILER V7.06   OEM_EC6266                                                            07/06/2010 09:59:47 PAGE 19  

1110          
1111          //----------------------------------------------------------------------------
1112          // EC Command 0xF4:
1113          //----------------------------------------------------------------------------
1114          void EC6266_CMD_F4(void)
1115          {
1116   1      
1117   1      }
1118          
1119          //----------------------------------------------------------------------------
1120          // EC Command 0xF5:
1121          //----------------------------------------------------------------------------
1122          void EC6266_CMD_F5(void)
1123          {
1124   1      
1125   1      }
1126          
1127          //----------------------------------------------------------------------------
1128          // EC Command 0xF6:
1129          //----------------------------------------------------------------------------
1130          void EC6266_CMD_F6(void)
1131          {
1132   1      
1133   1      }
1134          
1135          //----------------------------------------------------------------------------
1136          // EC Command 0xF7:
1137          //----------------------------------------------------------------------------
1138          void EC6266_CMD_F7(void)
1139          {
1140   1      
1141   1      }
1142          
1143          //----------------------------------------------------------------------------
1144          // EC Command 0xF8:
1145          //----------------------------------------------------------------------------
1146          void EC6266_CMD_F8(void)
1147          {
1148   1      
1149   1      }
1150          
1151          //----------------------------------------------------------------------------
1152          // EC Command 0xF9:
1153          //----------------------------------------------------------------------------
1154          void EC6266_CMD_F9(void)
1155          {
1156   1      
1157   1      }
1158          
1159          //----------------------------------------------------------------------------
1160          // EC Command 0xFA:
1161          //----------------------------------------------------------------------------
1162          void EC6266_CMD_FA(void)
1163          {
1164   1      
1165   1      }
1166          
1167          //----------------------------------------------------------------------------
1168          // EC Command 0xFB:
1169          //----------------------------------------------------------------------------
1170          void EC6266_CMD_FB(void)
1171          {
C51 COMPILER V7.06   OEM_EC6266                                                            07/06/2010 09:59:47 PAGE 20  

1172   1      
1173   1      }
1174          
1175          //----------------------------------------------------------------------------
1176          // EC Command 0xFC:
1177          //----------------------------------------------------------------------------
1178          void EC6266_CMD_FC(void)
1179          {
1180   1      
1181   1      }
1182          
1183          //----------------------------------------------------------------------------
1184          // EC Command 0xFD:
1185          //----------------------------------------------------------------------------
1186          void EC6266_CMD_FD(void)
1187          {
1188   1      
1189   1      }
1190          
1191          //----------------------------------------------------------------------------
1192          // EC Command 0xFE:
1193          //----------------------------------------------------------------------------
1194          void EC6266_CMD_FE(void)
1195          {
1196   1      
1197   1      }
1198          
1199          //----------------------------------------------------------------------------
1200          // EC Command 0xFF:
1201          //----------------------------------------------------------------------------
1202          void EC6266_CMD_FF(void)
1203          {
1204   1      
1205   1      }
1206          
1207          //----------------------------------------------------------------------------
1208          // Handle ACPI NULL commands.
1209          //----------------------------------------------------------------------------
1210          void EC6266_CMD_NULL(void)
1211          {
1212   1      
1213   1      }
1214          
1215          //----------------------------------------------------------------------------
1216          // Special Handle
1217          // Embedded Controller Data, EC_DATA (R/W)
1218          //----------------------------------------------------------------------------
1219          void EC62_DATA_STEP0(void)
1220          {
1221   1      
1222   1      }
1223          
1224          //----------------------------------------------------------------------------
1225          // Special Handle
1226          // Embedded Controller Data, EC_DATA (R/W)
1227          //----------------------------------------------------------------------------
1228          void EC62_DATA_STEP4(void)
1229          {
1230   1          #if SUPPORT_MATRIX_UTILITY
1231   1          switch( PM1StepSP )
1232   1          {
1233   2              case 2:
C51 COMPILER V7.06   OEM_EC6266                                                            07/06/2010 09:59:47 PAGE 21  

1234   2                  PM1Data1=PM1Data;       // address high
1235   2                  break;
1236   2      
1237   2              case 1:
1238   2                  Read_External_Ram();
1239   2                  break;
1240   2          }
1241   1          PM1StepSP--;
1242   1          #endif
1243   1      }
1244          
1245          //----------------------------------------------------------------------------
1246          // Special Handle
1247          // Embedded Controller Data, EC_DATA (R/W)
1248          //----------------------------------------------------------------------------
1249          void EC62_DATA_STEP5(void)
1250          {
1251   1          #if SUPPORT_MATRIX_UTILITY
1252   1          if( PM1StepSP == 0x03 )
1253   1          {
1254   2              PM1Data2 = PM1Data;  // address high
1255   2          }
1256   1          else if( PM1StepSP == 0x02 )
1257   1          {
1258   2              PM1Data1 = PM1Data;  // address low
1259   2          }
1260   1          else if( PM1StepSP == 0x01 )
1261   1          {
1262   2              Write_External_Ram();
1263   2          }
1264   1          PM1StepSP--;
1265   1          #endif
1266   1      }
1267          
1268          //----------------------------------------------------------------------------
1269          // Special Handle
1270          // Embedded Controller Data, EC_DATA (R/W)
1271          //----------------------------------------------------------------------------
1272          void EC62_DATA_STEP6(void)
1273          {
1274   1      
1275   1      }
1276          
1277          //----------------------------------------------------------------------------
1278          // Special Handle
1279          // Embedded Controller Data, EC_DATA (R/W)
1280          //----------------------------------------------------------------------------
1281          void EC62_DATA_STEP7(void)
1282          {
1283   1      
1284   1      }
1285          
1286          //----------------------------------------------------------------------------
1287          // Special Handle
1288          // Get 1 Bytes Embedded Controller Data, EC_DATA (R/W)
1289          //----------------------------------------------------------------------------
1290          BYTE OEM_GetPort62Data(void)
1291          {
1292   1      
1293   1          WORD  iLOOP;
1294   1          iLOOP = WaitECDataDelay;
1295   1      
C51 COMPILER V7.06   OEM_EC6266                                                            07/06/2010 09:59:47 PAGE 22  

1296   1          do
1297   1          {
1298   2              if ( IS_BIT_SET(PM1STS,1) )
1299   2              {
1300   3                  if ( PM1STS & C_D )
1301   3                  {
1302   4                      return 0x00;
1303   4                  }
1304   3                  else
1305   3                  {
1306   4                      PM1Data = PM1DI;            // Load data
1307   4                      return 0x01;
1308   4                  }
1309   3              }
1310   2      
1311   2              iLOOP--;
1312   2          }
1313   1          while (iLOOP != 0 );
1314   1      
1315   1          return 0x00;
1316   1      
1317   1      }
1318          //----------------------------------------------------------------------------
1319          /* Reserved
1320          const FUNCT_PTR_V_V code EC6266Cmd0X_table[16] =
1321          {
1322              EC6266_CMD_00,                  // Process ACPI command 00
1323              EC6266_CMD_01,                  // Process ACPI command 01
1324              EC6266_CMD_02,                  // Process ACPI command 02
1325              EC6266_CMD_03,                  // Process ACPI command 03
1326              EC6266_CMD_04,                  // Process ACPI command 04
1327              EC6266_CMD_05,                  // Process ACPI command 05
1328              EC6266_CMD_06,                  // Process ACPI command 06
1329              EC6266_CMD_07,                  // Process ACPI command 07
1330              EC6266_CMD_08,                  // Process ACPI command 08
1331              EC6266_CMD_09,                  // Process ACPI command 09
1332              EC6266_CMD_0A,                  // Process ACPI command 0A
1333              EC6266_CMD_0B,                  // Process ACPI command 0B
1334              EC6266_CMD_0C,                  // Process ACPI command 0C
1335              EC6266_CMD_0D,                  // Process ACPI command 0D
1336              EC6266_CMD_0E,                  // Process ACPI command 0E
1337              EC6266_CMD_0F                   // Process ACPI command 0F
1338          };
1339          */
1340          //----------------------------------------------------------------------------
1341          const FUNCT_PTR_V_V code EC6266Cmd9X_Table[16] =
1342          {
1343              EC6266_CMD_90,                  // Process ACPI command 90
1344              EC6266_CMD_91,                  // Process ACPI command 91
1345              EC6266_CMD_92,                  // Process ACPI command 92
1346              EC6266_CMD_93,                  // Process ACPI command 93
1347              EC6266_CMD_94,                  // Process ACPI command 94
1348              EC6266_CMD_95,                  // Process ACPI command 95
1349              EC6266_CMD_96,                  // Process ACPI command 96
1350              EC6266_CMD_97,                  // Process ACPI command 97
1351              EC6266_CMD_98,                  // Process ACPI command 98
1352              EC6266_CMD_99,                  // Process ACPI command 99
1353              EC6266_CMD_9A,                  // Process ACPI command 9A
1354              EC6266_CMD_9B,                  // Process ACPI command 9B
1355              EC6266_CMD_9C,                  // Process ACPI command 9C
1356              EC6266_CMD_9D,                  // Process ACPI command 9D
1357              EC6266_CMD_9E,                  // Process ACPI command 9E
C51 COMPILER V7.06   OEM_EC6266                                                            07/06/2010 09:59:47 PAGE 23  

1358              EC6266_CMD_9F,                  // Process ACPI command 9F
1359          };
1360          //----------------------------------------------------------------------------
1361          const FUNCT_PTR_V_V code EC6266CmdAX_Table[16] =
1362          {
1363              EC6266_CMD_A0,                  // Process ACPI command A0
1364              EC6266_CMD_A1,                  // Process ACPI command A1
1365              EC6266_CMD_A2,                  // Process ACPI command A2
1366              EC6266_CMD_A3,                  // Process ACPI command A3
1367              EC6266_CMD_A4,                  // Process ACPI command A4
1368              EC6266_CMD_A5,                  // Process ACPI command A5
1369              EC6266_CMD_A6,                  // Process ACPI command A6
1370              EC6266_CMD_A7,                  // Process ACPI command A7
1371              EC6266_CMD_A8,                  // Process ACPI command A8
1372              EC6266_CMD_A9,                  // Process ACPI command A9
1373              EC6266_CMD_AA,                  // Process ACPI command AA
1374              EC6266_CMD_AB,                  // Process ACPI command AB
1375              EC6266_CMD_AC,                  // Process ACPI command AC
1376              EC6266_CMD_AD,                  // Process ACPI command AD
1377              EC6266_CMD_AE,                  // Process ACPI command AE
1378              EC6266_CMD_AF,                  // Process ACPI command AF
1379          };
1380          //----------------------------------------------------------------------------
1381          const FUNCT_PTR_V_V code EC6266CmdBX_Table[16] =
1382          {
1383              EC6266_CMD_B0,                  // Process ACPI command B0
1384              EC6266_CMD_B1,                  // Process ACPI command B1
1385              EC6266_CMD_B2,                  // Process ACPI command B2
1386              EC6266_CMD_B3,                  // Process ACPI command B3
1387              EC6266_CMD_B4,                  // Process ACPI command B4
1388              EC6266_CMD_B5,                  // Process ACPI command B5
1389              EC6266_CMD_B6,                  // Process ACPI command B6
1390              EC6266_CMD_B7,                  // Process ACPI command B7
1391              EC6266_CMD_B8,                  // Process ACPI command B8
1392              EC6266_CMD_B9,                  // Process ACPI command B9
1393              EC6266_CMD_BA,                  // Process ACPI command BA
1394              EC6266_CMD_BB,                  // Process ACPI command BB
1395              EC6266_CMD_BC,                  // Process ACPI command BC
1396              EC6266_CMD_BD,                  // Process ACPI command BD
1397              EC6266_CMD_BE,                  // Process ACPI command BE
1398              EC6266_CMD_BF,                  // Process ACPI command BF
1399          };
1400          //----------------------------------------------------------------------------
1401          const FUNCT_PTR_V_V code EC6266CmdCX_Table[16] =
1402          {
1403              EC6266_CMD_C0,                  // Process ACPI command C0
1404              EC6266_CMD_C1,                  // Process ACPI command C1
1405              EC6266_CMD_C2,                  // Process ACPI command C2
1406              EC6266_CMD_C3,                  // Process ACPI command C3
1407              EC6266_CMD_C4,                  // Process ACPI command C4
1408              EC6266_CMD_C5,                  // Process ACPI command C5
1409              EC6266_CMD_C6,                  // Process ACPI command C6
1410              EC6266_CMD_C7,                  // Process ACPI command C7
1411              EC6266_CMD_C8,                  // Process ACPI command C8
1412              EC6266_CMD_C9,                  // Process ACPI command C9
1413              EC6266_CMD_CA,                  // Process ACPI command CA
1414              EC6266_CMD_CB,                  // Process ACPI command CB
1415              EC6266_CMD_CC,                  // Process ACPI command CC
1416              EC6266_CMD_CD,                  // Process ACPI command CD
1417              EC6266_CMD_CE,                  // Process ACPI command CE
1418              EC6266_CMD_CF,                  // Process ACPI command CF
1419          };
C51 COMPILER V7.06   OEM_EC6266                                                            07/06/2010 09:59:47 PAGE 24  

1420          //----------------------------------------------------------------------------
1421          const FUNCT_PTR_V_V code EC6266CmdDX_Table[16] =
1422          {
1423              EC6266_CMD_D0,                  // Process ACPI command D0
1424              EC6266_CMD_D1,                  // Process ACPI command D1
1425              EC6266_CMD_D2,                  // Process ACPI command D2
1426              EC6266_CMD_D3,                  // Process ACPI command D3
1427              EC6266_CMD_D4,                  // Process ACPI command D4
1428              EC6266_CMD_D5,                  // Process ACPI command D5
1429              EC6266_CMD_D6,                  // Process ACPI command D6
1430              EC6266_CMD_D7,                  // Process ACPI command D7
1431              EC6266_CMD_D8,                  // Process ACPI command D8
1432              EC6266_CMD_D9,                  // Process ACPI command D9
1433              EC6266_CMD_DA,                  // Process ACPI command DA
1434              EC6266_CMD_DB,                  // Process ACPI command DB
1435              EC6266_CMD_DC,                  // Process ACPI command DC
1436              EC6266_CMD_DD,                  // Process ACPI command DD
1437              EC6266_CMD_DE,                  // Process ACPI command DE
1438              EC6266_CMD_DF,                  // Process ACPI command DF
1439          };
1440          //----------------------------------------------------------------------------
1441          const FUNCT_PTR_V_V code EC6266CmdEX_Table[16] =
1442          {
1443              EC6266_CMD_E0,                  // Process ACPI command E0
1444              EC6266_CMD_E1,                  // Process ACPI command E1
1445              EC6266_CMD_E2,                  // Process ACPI command E2
1446              EC6266_CMD_E3,                  // Process ACPI command E3
1447              EC6266_CMD_E4,                  // Process ACPI command E4
1448              EC6266_CMD_E5,                  // Process ACPI command E5
1449              EC6266_CMD_E6,                  // Process ACPI command E6
1450              EC6266_CMD_E7,                  // Process ACPI command E7
1451              EC6266_CMD_E8,                  // Process ACPI command E8
1452              EC6266_CMD_E9,                  // Process ACPI command E9
1453              EC6266_CMD_EA,                  // Process ACPI command EA
1454              EC6266_CMD_EB,                  // Process ACPI command EB
1455              EC6266_CMD_EC,                  // Process ACPI command EC
1456              EC6266_CMD_ED,                  // Process ACPI command ED
1457              EC6266_CMD_EE,                  // Process ACPI command EE
1458              EC6266_CMD_EF,                  // Process ACPI command EF
1459          };
1460          //----------------------------------------------------------------------------
1461          const FUNCT_PTR_V_V code EC6266CmdFX_Table[16] =
1462          {
1463              EC6266_CMD_F0,                  // Process ACPI command F0
1464              EC6266_CMD_F1,                  // Process ACPI command F1
1465              EC6266_CMD_F2,                  // Process ACPI command F2
1466              EC6266_CMD_F3,                  // Process ACPI command F3
1467              EC6266_CMD_F4,                  // Process ACPI command F4
1468              EC6266_CMD_F5,                  // Process ACPI command F5
1469              EC6266_CMD_F6,                  // Process ACPI command F6
1470              EC6266_CMD_F7,                  // Process ACPI command F7
1471              EC6266_CMD_F8,                  // Process ACPI command F8
1472              EC6266_CMD_F9,                  // Process ACPI command F9
1473              EC6266_CMD_FA,                  // Process ACPI command FA
1474              EC6266_CMD_FB,                  // Process ACPI command FB
1475              EC6266_CMD_FC,                  // Process ACPI command FC
1476              EC6266_CMD_FD,                  // Process ACPI command FD
1477              EC6266_CMD_FE,                  // Process ACPI command FE
1478              EC6266_CMD_FF,                  // Process ACPI command FF
1479          };
1480          //----------------------------------------------------------------------------
1481          const FUNCT_PTR_V_V code EC6266NULL_Table[16] =
C51 COMPILER V7.06   OEM_EC6266                                                            07/06/2010 09:59:47 PAGE 25  

1482          {
1483              EC6266_CMD_NULL,        //0
1484              EC6266_CMD_NULL,        //1
1485              EC6266_CMD_NULL,        //2
1486              EC6266_CMD_NULL,        //3
1487              EC6266_CMD_NULL,        //4
1488              EC6266_CMD_NULL,        //5
1489              EC6266_CMD_NULL,        //6
1490              EC6266_CMD_NULL,        //7
1491              EC6266_CMD_NULL,        //8
1492              EC6266_CMD_NULL,        //9
1493              EC6266_CMD_NULL,        //A
1494              EC6266_CMD_NULL,        //B
1495              EC6266_CMD_NULL,        //C
1496              EC6266_CMD_NULL,        //D
1497              EC6266_CMD_NULL,        //E
1498              EC6266_CMD_NULL         //F
1499          };
1500          //----------------------------------------------------------------------------
1501          void EC_Cmd_0X(void)
1502          {
1503   1          //(EC6266Cmd0X_Table[PM1Cmd&0x0F])();
1504   1          (EC6266NULL_Table[PM1Cmd&0x0F])();
1505   1      }
1506          //----------------------------------------------------------------------------
1507          void EC_Cmd_1X(void)
1508          {
1509   1          //(EC6266Cmd1X_Table[PM1Cmd&0x0F])();
1510   1          (EC6266NULL_Table[PM1Cmd&0x0F])();
1511   1      }
1512          //----------------------------------------------------------------------------
1513          void EC_Cmd_2X(void)
1514          {
1515   1          //(EC6266Cmd2X_Table[PM1Cmd&0x0F])();
1516   1          (EC6266NULL_Table[PM1Cmd&0x0F])();
1517   1      }
1518          //----------------------------------------------------------------------------
1519          void EC_Cmd_3X(void)
1520          {
1521   1          //(EC6266Cmd3X_Table[PM1Cmd&0x0F])();
1522   1          (EC6266NULL_Table[PM1Cmd&0x0F])();
1523   1      }
1524          //----------------------------------------------------------------------------
1525          void EC_Cmd_4X(void)
1526          {
1527   1          //(EC6266Cmd4X_Table[PM1Cmd&0x0F])();
1528   1          (EC6266NULL_Table[PM1Cmd&0x0F])();
1529   1      }
1530          //----------------------------------------------------------------------------
1531          void EC_Cmd_5X(void)
1532          {
1533   1          //(EC6266Cmd5X_Table[PM1Cmd&0x0F])();
1534   1          (EC6266NULL_Table[PM1Cmd&0x0F])();
1535   1      }
1536          //----------------------------------------------------------------------------
1537          void EC_Cmd_6X(void)
1538          {
1539   1          //(EC6266Cmd6X_Table[PM1Cmd&0x0F])();
1540   1          (EC6266NULL_Table[PM1Cmd&0x0F])();
1541   1      }
1542          //----------------------------------------------------------------------------
1543          void EC_Cmd_7X(void)
C51 COMPILER V7.06   OEM_EC6266                                                            07/06/2010 09:59:47 PAGE 26  

1544          {
1545   1          //(EC6266Cmd7X_Table[PM1Cmd&0x0F])();
1546   1          (EC6266NULL_Table[PM1Cmd&0x0F])();
1547   1      }
1548          //----------------------------------------------------------------------------
1549          void EC_Cmd_9X(void)
1550          {
1551   1          (EC6266Cmd9X_Table[PM1Cmd&0x0F])();
1552   1      }
1553          //----------------------------------------------------------------------------
1554          void EC_Cmd_AX(void)
1555          {
1556   1          (EC6266CmdAX_Table[PM1Cmd&0x0F])();
1557   1      }
1558          //----------------------------------------------------------------------------
1559          void EC_Cmd_BX(void)
1560          {
1561   1          (EC6266CmdBX_Table[PM1Cmd&0x0F])();
1562   1      }
1563          //----------------------------------------------------------------------------
1564          void EC_Cmd_CX(void)
1565          {
1566   1          (EC6266CmdCX_Table[PM1Cmd&0x0F])();
1567   1      }
1568          //----------------------------------------------------------------------------
1569          void EC_Cmd_DX(void)
1570          {
1571   1          (EC6266CmdDX_Table[PM1Cmd&0x0F])();
1572   1      }
1573          //----------------------------------------------------------------------------
1574          void EC_Cmd_EX(void)
1575          {
1576   1          (EC6266CmdEX_Table[PM1Cmd&0x0F])();
1577   1      }
1578          //----------------------------------------------------------------------------
1579          void EC_Cmd_FX(void)
1580          {
1581   1          (EC6266CmdFX_Table[PM1Cmd&0x0F])();
1582   1      }
1583          //----------------------------------------------------------------------------
1584          
1585          /*-----------------------------------------------------------------------------
1586           * End
1587           *---------------------------------------------------------------------------*/
C51 COMPILER V7.06   OEM_EC6266                                                            07/06/2010 09:59:47 PAGE 27  

ASSEMBLY LISTING OF GENERATED OBJECT CODE


             ; FUNCTION _Read_MapECSpace (BEGIN)
                                           ; SOURCE LINE # 13
;---- Variable 'MapIndex' assigned to Register 'R5' ----
0000 AD07              MOV     R5,AR7
                                           ; SOURCE LINE # 14
                                           ; SOURCE LINE # 15
0002 ED                MOV     A,R5
0003 C3                CLR     C
0004 9480              SUBB    A,#080H
0006 4021              JC      ?C0001
                                           ; SOURCE LINE # 16
                                           ; SOURCE LINE # 17
0008 900343            MOV     DPTR,#0343H
000B E0                MOVX    A,@DPTR
000C C4                SWAP    A
000D 540F              ANL     A,#0FH
000F 75F080            MOV     B,#080H
0012 A4                MUL     AB
0013 FF                MOV     R7,A
0014 ED                MOV     A,R5
0015 2480              ADD     A,#080H
0017 FD                MOV     R5,A
0018 E4                CLR     A
0019 34FF              ADDC    A,#0FFH
001B CD                XCH     A,R5
001C 2F                ADD     A,R7
001D FF                MOV     R7,A
001E ED                MOV     A,R5
001F 35F0              ADDC    A,B
0021 7800        E     MOV     R0,#LOW Tmp_XPntr
0023 F6                MOV     @R0,A
0024 08                INC     R0
0025 A607              MOV     @R0,AR7
                                           ; SOURCE LINE # 18
0027 800A              SJMP    ?C0002
0029         ?C0001:
                                           ; SOURCE LINE # 20
                                           ; SOURCE LINE # 21
0029 AF05              MOV     R7,AR5
002B 7403              MOV     A,#03H
002D 7800        E     MOV     R0,#LOW Tmp_XPntr
002F F6                MOV     @R0,A
0030 08                INC     R0
0031 A607              MOV     @R0,AR7
                                           ; SOURCE LINE # 22
0033         ?C0002:
                                           ; SOURCE LINE # 23
0033 7800        E     MOV     R0,#LOW Tmp_XPntr
0035 E6                MOV     A,@R0
0036 FE                MOV     R6,A
0037 08                INC     R0
0038 E6                MOV     A,@R0
0039 F582              MOV     DPL,A
003B 8E83              MOV     DPH,R6
003D E0                MOVX    A,@DPTR
003E FF                MOV     R7,A
                                           ; SOURCE LINE # 25
003F         ?C0003:
003F 22                RET     
C51 COMPILER V7.06   OEM_EC6266                                                            07/06/2010 09:59:47 PAGE 28  

             ; FUNCTION _Read_MapECSpace (END)

             ; FUNCTION _Write_MapECSpace (BEGIN)
                                           ; SOURCE LINE # 30
;---- Variable 'MapIndex' assigned to Register 'R4' ----
0000 AC07              MOV     R4,AR7
;---- Variable 'data1' assigned to Register 'R5' ----
                                           ; SOURCE LINE # 31
                                           ; SOURCE LINE # 32
0002 EC                MOV     A,R4
0003 C3                CLR     C
0004 9480              SUBB    A,#080H
0006 4021              JC      ?C0004
                                           ; SOURCE LINE # 33
                                           ; SOURCE LINE # 34
0008 900343            MOV     DPTR,#0343H
000B E0                MOVX    A,@DPTR
000C C4                SWAP    A
000D 540F              ANL     A,#0FH
000F 75F080            MOV     B,#080H
0012 A4                MUL     AB
0013 FF                MOV     R7,A
0014 EC                MOV     A,R4
0015 2480              ADD     A,#080H
0017 FB                MOV     R3,A
0018 E4                CLR     A
0019 34FF              ADDC    A,#0FFH
001B CB                XCH     A,R3
001C 2F                ADD     A,R7
001D FF                MOV     R7,A
001E EB                MOV     A,R3
001F 35F0              ADDC    A,B
0021 7800        E     MOV     R0,#LOW Tmp_XPntr
0023 F6                MOV     @R0,A
0024 08                INC     R0
0025 A607              MOV     @R0,AR7
                                           ; SOURCE LINE # 35
0027 800A              SJMP    ?C0005
0029         ?C0004:
                                           ; SOURCE LINE # 37
                                           ; SOURCE LINE # 38
0029 AF04              MOV     R7,AR4
002B 7403              MOV     A,#03H
002D 7800        E     MOV     R0,#LOW Tmp_XPntr
002F F6                MOV     @R0,A
0030 08                INC     R0
0031 A607              MOV     @R0,AR7
                                           ; SOURCE LINE # 39
0033         ?C0005:
                                           ; SOURCE LINE # 40
0033 7800        E     MOV     R0,#LOW Tmp_XPntr
0035 E6                MOV     A,@R0
0036 FC                MOV     R4,A
0037 08                INC     R0
0038 E6                MOV     A,@R0
0039 F582              MOV     DPL,A
003B 8C83              MOV     DPH,R4
003D ED                MOV     A,R5
003E F0                MOVX    @DPTR,A
                                           ; SOURCE LINE # 42
003F 22                RET     
             ; FUNCTION _Write_MapECSpace (END)
C51 COMPILER V7.06   OEM_EC6266                                                            07/06/2010 09:59:47 PAGE 29  


             ; FUNCTION Read_External_Ram (BEGIN)
                                           ; SOURCE LINE # 49
                                           ; SOURCE LINE # 50
                                           ; SOURCE LINE # 51
0000 AF00        E     MOV     R7,PM1Data1
0002 EF                MOV     A,R7
0003 FE                MOV     R6,A
0004 AD00        E     MOV     R5,PM1Data
0006 7C00              MOV     R4,#00H
0008 E4                CLR     A
0009 2D                ADD     A,R5
000A FF                MOV     R7,A
000B EC                MOV     A,R4
000C 3E                ADDC    A,R6
000D 7800        E     MOV     R0,#LOW Tmp_XPntr
000F F6                MOV     @R0,A
0010 08                INC     R0
0011 A607              MOV     @R0,AR7
                                           ; SOURCE LINE # 52
0013 18                DEC     R0
0014 E6                MOV     A,@R0
0015 FE                MOV     R6,A
0016 08                INC     R0
0017 E6                MOV     A,@R0
0018 F582              MOV     DPL,A
001A 8E83              MOV     DPH,R6
001C E0                MOVX    A,@DPTR
001D 901501            MOV     DPTR,#01501H
0020 F0                MOVX    @DPTR,A
                                           ; SOURCE LINE # 53
0021 22                RET     
             ; FUNCTION Read_External_Ram (END)

             ; FUNCTION Write_External_Ram (BEGIN)
                                           ; SOURCE LINE # 59
                                           ; SOURCE LINE # 60
                                           ; SOURCE LINE # 61
0000 AF00        E     MOV     R7,PM1Data2
0002 EF                MOV     A,R7
0003 FE                MOV     R6,A
0004 AD00        E     MOV     R5,PM1Data1
0006 7C00              MOV     R4,#00H
0008 E4                CLR     A
0009 2D                ADD     A,R5
000A FF                MOV     R7,A
000B EC                MOV     A,R4
000C 3E                ADDC    A,R6
000D 7800        E     MOV     R0,#LOW Tmp_XPntr
000F F6                MOV     @R0,A
0010 08                INC     R0
0011 A607              MOV     @R0,AR7
                                           ; SOURCE LINE # 62
0013 18                DEC     R0
0014 E6                MOV     A,@R0
0015 FE                MOV     R6,A
0016 08                INC     R0
0017 E6                MOV     A,@R0
0018 F582              MOV     DPL,A
001A 8E83              MOV     DPH,R6
001C E500        E     MOV     A,PM1Data
001E F0                MOVX    @DPTR,A
C51 COMPILER V7.06   OEM_EC6266                                                            07/06/2010 09:59:47 PAGE 30  

                                           ; SOURCE LINE # 63
001F 22                RET     
             ; FUNCTION Write_External_Ram (END)

             ; FUNCTION EC6266_CMD_85 (BEGIN)
                                           ; SOURCE LINE # 171
                                           ; SOURCE LINE # 172
                                           ; SOURCE LINE # 174
0000 22                RET     
             ; FUNCTION EC6266_CMD_85 (END)

             ; FUNCTION EC6266_CMD_86 (BEGIN)
                                           ; SOURCE LINE # 179
                                           ; SOURCE LINE # 180
                                           ; SOURCE LINE # 182
0000 22                RET     
             ; FUNCTION EC6266_CMD_86 (END)

             ; FUNCTION EC6266_CMD_87 (BEGIN)
                                           ; SOURCE LINE # 187
                                           ; SOURCE LINE # 188
                                           ; SOURCE LINE # 190
0000 22                RET     
             ; FUNCTION EC6266_CMD_87 (END)

             ; FUNCTION EC6266_CMD_88 (BEGIN)
                                           ; SOURCE LINE # 195
                                           ; SOURCE LINE # 196
                                           ; SOURCE LINE # 198
0000 22                RET     
             ; FUNCTION EC6266_CMD_88 (END)

             ; FUNCTION EC6266_CMD_89 (BEGIN)
                                           ; SOURCE LINE # 203
                                           ; SOURCE LINE # 204
                                           ; SOURCE LINE # 206
0000 22                RET     
             ; FUNCTION EC6266_CMD_89 (END)

             ; FUNCTION EC6266_CMD_8A (BEGIN)
                                           ; SOURCE LINE # 211
                                           ; SOURCE LINE # 212
                                           ; SOURCE LINE # 214
0000 22                RET     
             ; FUNCTION EC6266_CMD_8A (END)

             ; FUNCTION EC6266_CMD_8B (BEGIN)
                                           ; SOURCE LINE # 219
                                           ; SOURCE LINE # 220
                                           ; SOURCE LINE # 222
0000 22                RET     
             ; FUNCTION EC6266_CMD_8B (END)

             ; FUNCTION EC6266_CMD_8C (BEGIN)
                                           ; SOURCE LINE # 227
                                           ; SOURCE LINE # 228
                                           ; SOURCE LINE # 230
0000 22                RET     
             ; FUNCTION EC6266_CMD_8C (END)

             ; FUNCTION EC6266_CMD_8D (BEGIN)
                                           ; SOURCE LINE # 235
C51 COMPILER V7.06   OEM_EC6266                                                            07/06/2010 09:59:47 PAGE 31  

                                           ; SOURCE LINE # 236
                                           ; SOURCE LINE # 238
0000 22                RET     
             ; FUNCTION EC6266_CMD_8D (END)

             ; FUNCTION EC6266_CMD_8E (BEGIN)
                                           ; SOURCE LINE # 243
                                           ; SOURCE LINE # 244
                                           ; SOURCE LINE # 246
0000 22                RET     
             ; FUNCTION EC6266_CMD_8E (END)

             ; FUNCTION EC6266_CMD_8F (BEGIN)
                                           ; SOURCE LINE # 251
                                           ; SOURCE LINE # 252
                                           ; SOURCE LINE # 254
0000 22                RET     
             ; FUNCTION EC6266_CMD_8F (END)

             ; FUNCTION EC6266_CMD_90 (BEGIN)
                                           ; SOURCE LINE # 259
                                           ; SOURCE LINE # 260
                                           ; SOURCE LINE # 262
0000 22                RET     
             ; FUNCTION EC6266_CMD_90 (END)

             ; FUNCTION EC6266_CMD_91 (BEGIN)
                                           ; SOURCE LINE # 267
                                           ; SOURCE LINE # 268
                                           ; SOURCE LINE # 270
0000 22                RET     
             ; FUNCTION EC6266_CMD_91 (END)

             ; FUNCTION EC6266_CMD_92 (BEGIN)
                                           ; SOURCE LINE # 275
                                           ; SOURCE LINE # 276
                                           ; SOURCE LINE # 278
0000 750004      E     MOV     PM1Step,#04H
                                           ; SOURCE LINE # 279
0003 750002      E     MOV     PM1StepSP,#02H
                                           ; SOURCE LINE # 281
0006 22                RET     
             ; FUNCTION EC6266_CMD_92 (END)

             ; FUNCTION EC6266_CMD_93 (BEGIN)
                                           ; SOURCE LINE # 286
                                           ; SOURCE LINE # 287
                                           ; SOURCE LINE # 289
0000 750005      E     MOV     PM1Step,#05H
                                           ; SOURCE LINE # 290
0003 750003      E     MOV     PM1StepSP,#03H
                                           ; SOURCE LINE # 292
0006 22                RET     
             ; FUNCTION EC6266_CMD_93 (END)

             ; FUNCTION EC6266_CMD_94 (BEGIN)
                                           ; SOURCE LINE # 297
                                           ; SOURCE LINE # 298
                                           ; SOURCE LINE # 303
0000 22                RET     
             ; FUNCTION EC6266_CMD_94 (END)

C51 COMPILER V7.06   OEM_EC6266                                                            07/06/2010 09:59:47 PAGE 32  

             ; FUNCTION EC6266_CMD_95 (BEGIN)
                                           ; SOURCE LINE # 308
                                           ; SOURCE LINE # 309
                                           ; SOURCE LINE # 311
0000 22                RET     
             ; FUNCTION EC6266_CMD_95 (END)

             ; FUNCTION EC6266_CMD_96 (BEGIN)
                                           ; SOURCE LINE # 316
                                           ; SOURCE LINE # 317
                                           ; SOURCE LINE # 319
0000 22                RET     
             ; FUNCTION EC6266_CMD_96 (END)

             ; FUNCTION EC6266_CMD_97 (BEGIN)
                                           ; SOURCE LINE # 324
                                           ; SOURCE LINE # 325
                                           ; SOURCE LINE # 327
0000 22                RET     
             ; FUNCTION EC6266_CMD_97 (END)

             ; FUNCTION EC6266_CMD_98 (BEGIN)
                                           ; SOURCE LINE # 332
                                           ; SOURCE LINE # 333
                                           ; SOURCE LINE # 335
0000 22                RET     
             ; FUNCTION EC6266_CMD_98 (END)

             ; FUNCTION EC6266_CMD_99 (BEGIN)
                                           ; SOURCE LINE # 340
                                           ; SOURCE LINE # 341
                                           ; SOURCE LINE # 343
0000 22                RET     
             ; FUNCTION EC6266_CMD_99 (END)

             ; FUNCTION EC6266_CMD_9A (BEGIN)
                                           ; SOURCE LINE # 348
                                           ; SOURCE LINE # 349
                                           ; SOURCE LINE # 351
0000 22                RET     
             ; FUNCTION EC6266_CMD_9A (END)

             ; FUNCTION EC6266_CMD_9B (BEGIN)
                                           ; SOURCE LINE # 356
                                           ; SOURCE LINE # 357
                                           ; SOURCE LINE # 359
0000 22                RET     
             ; FUNCTION EC6266_CMD_9B (END)

             ; FUNCTION EC6266_CMD_9C (BEGIN)
                                           ; SOURCE LINE # 364
                                           ; SOURCE LINE # 365
                                           ; SOURCE LINE # 367
0000 22                RET     
             ; FUNCTION EC6266_CMD_9C (END)

             ; FUNCTION EC6266_CMD_9D (BEGIN)
                                           ; SOURCE LINE # 372
                                           ; SOURCE LINE # 373
                                           ; SOURCE LINE # 375
0000 22                RET     
             ; FUNCTION EC6266_CMD_9D (END)
C51 COMPILER V7.06   OEM_EC6266                                                            07/06/2010 09:59:47 PAGE 33  


             ; FUNCTION EC6266_CMD_9E (BEGIN)
                                           ; SOURCE LINE # 380
                                           ; SOURCE LINE # 381
                                           ; SOURCE LINE # 383
0000 22                RET     
             ; FUNCTION EC6266_CMD_9E (END)

             ; FUNCTION EC6266_CMD_9F (BEGIN)
                                           ; SOURCE LINE # 388
                                           ; SOURCE LINE # 389
                                           ; SOURCE LINE # 391
0000 22                RET     
             ; FUNCTION EC6266_CMD_9F (END)

             ; FUNCTION EC6266_CMD_A0 (BEGIN)
                                           ; SOURCE LINE # 396
                                           ; SOURCE LINE # 397
                                           ; SOURCE LINE # 399
0000 22                RET     
             ; FUNCTION EC6266_CMD_A0 (END)

             ; FUNCTION EC6266_CMD_A1 (BEGIN)
                                           ; SOURCE LINE # 404
                                           ; SOURCE LINE # 405
                                           ; SOURCE LINE # 407
0000 22                RET     
             ; FUNCTION EC6266_CMD_A1 (END)

             ; FUNCTION EC6266_CMD_A2 (BEGIN)
                                           ; SOURCE LINE # 412
                                           ; SOURCE LINE # 413
                                           ; SOURCE LINE # 415
0000 22                RET     
             ; FUNCTION EC6266_CMD_A2 (END)

             ; FUNCTION EC6266_CMD_A3 (BEGIN)
                                           ; SOURCE LINE # 420
                                           ; SOURCE LINE # 421
                                           ; SOURCE LINE # 423
0000 22                RET     
             ; FUNCTION EC6266_CMD_A3 (END)

             ; FUNCTION EC6266_CMD_A4 (BEGIN)
                                           ; SOURCE LINE # 428
                                           ; SOURCE LINE # 429
                                           ; SOURCE LINE # 432
0000 22                RET     
             ; FUNCTION EC6266_CMD_A4 (END)

             ; FUNCTION EC6266_CMD_A5 (BEGIN)
                                           ; SOURCE LINE # 437
                                           ; SOURCE LINE # 438
                                           ; SOURCE LINE # 440
0000 22                RET     
             ; FUNCTION EC6266_CMD_A5 (END)

             ; FUNCTION EC6266_CMD_A6 (BEGIN)
                                           ; SOURCE LINE # 445
                                           ; SOURCE LINE # 446
                                           ; SOURCE LINE # 448
0000 22                RET     
C51 COMPILER V7.06   OEM_EC6266                                                            07/06/2010 09:59:47 PAGE 34  

             ; FUNCTION EC6266_CMD_A6 (END)

             ; FUNCTION EC6266_CMD_A7 (BEGIN)
                                           ; SOURCE LINE # 453
                                           ; SOURCE LINE # 454
                                           ; SOURCE LINE # 456
0000 22                RET     
             ; FUNCTION EC6266_CMD_A7 (END)

             ; FUNCTION EC6266_CMD_A8 (BEGIN)
                                           ; SOURCE LINE # 461
                                           ; SOURCE LINE # 462
                                           ; SOURCE LINE # 464
0000 22                RET     
             ; FUNCTION EC6266_CMD_A8 (END)

             ; FUNCTION EC6266_CMD_A9 (BEGIN)
                                           ; SOURCE LINE # 469
                                           ; SOURCE LINE # 470
                                           ; SOURCE LINE # 472
0000 22                RET     
             ; FUNCTION EC6266_CMD_A9 (END)

             ; FUNCTION EC6266_CMD_AA (BEGIN)
                                           ; SOURCE LINE # 477
                                           ; SOURCE LINE # 478
                                           ; SOURCE LINE # 480
0000 22                RET     
             ; FUNCTION EC6266_CMD_AA (END)

             ; FUNCTION EC6266_CMD_AB (BEGIN)
                                           ; SOURCE LINE # 485
                                           ; SOURCE LINE # 486
                                           ; SOURCE LINE # 488
0000 22                RET     
             ; FUNCTION EC6266_CMD_AB (END)

             ; FUNCTION EC6266_CMD_AC (BEGIN)
                                           ; SOURCE LINE # 493
                                           ; SOURCE LINE # 494
                                           ; SOURCE LINE # 496
0000 22                RET     
             ; FUNCTION EC6266_CMD_AC (END)

             ; FUNCTION EC6266_CMD_AD (BEGIN)
                                           ; SOURCE LINE # 501
                                           ; SOURCE LINE # 502
                                           ; SOURCE LINE # 504
0000 22                RET     
             ; FUNCTION EC6266_CMD_AD (END)

             ; FUNCTION EC6266_CMD_AE (BEGIN)
                                           ; SOURCE LINE # 509
                                           ; SOURCE LINE # 510
                                           ; SOURCE LINE # 512
0000 22                RET     
             ; FUNCTION EC6266_CMD_AE (END)

             ; FUNCTION EC6266_CMD_AF (BEGIN)
                                           ; SOURCE LINE # 517
                                           ; SOURCE LINE # 518
                                           ; SOURCE LINE # 520
C51 COMPILER V7.06   OEM_EC6266                                                            07/06/2010 09:59:47 PAGE 35  

0000 22                RET     
             ; FUNCTION EC6266_CMD_AF (END)

             ; FUNCTION EC6266_CMD_B0 (BEGIN)
                                           ; SOURCE LINE # 525
                                           ; SOURCE LINE # 526
                                           ; SOURCE LINE # 528
0000 22                RET     
             ; FUNCTION EC6266_CMD_B0 (END)

             ; FUNCTION EC6266_CMD_B1 (BEGIN)
                                           ; SOURCE LINE # 533
                                           ; SOURCE LINE # 534
                                           ; SOURCE LINE # 536
0000 22                RET     
             ; FUNCTION EC6266_CMD_B1 (END)

             ; FUNCTION EC6266_CMD_B2 (BEGIN)
                                           ; SOURCE LINE # 541
                                           ; SOURCE LINE # 542
                                           ; SOURCE LINE # 544
0000 22                RET     
             ; FUNCTION EC6266_CMD_B2 (END)

             ; FUNCTION EC6266_CMD_B3 (BEGIN)
                                           ; SOURCE LINE # 549
                                           ; SOURCE LINE # 550
                                           ; SOURCE LINE # 552
0000 22                RET     
             ; FUNCTION EC6266_CMD_B3 (END)

             ; FUNCTION EC6266_CMD_B4 (BEGIN)
                                           ; SOURCE LINE # 557
                                           ; SOURCE LINE # 558
                                           ; SOURCE LINE # 563
0000 22                RET     
             ; FUNCTION EC6266_CMD_B4 (END)

             ; FUNCTION EC6266_CMD_B5 (BEGIN)
                                           ; SOURCE LINE # 568
                                           ; SOURCE LINE # 569
                                           ; SOURCE LINE # 571
0000 22                RET     
             ; FUNCTION EC6266_CMD_B5 (END)

             ; FUNCTION EC6266_CMD_B6 (BEGIN)
                                           ; SOURCE LINE # 576
                                           ; SOURCE LINE # 577
                                           ; SOURCE LINE # 579
0000 22                RET     
             ; FUNCTION EC6266_CMD_B6 (END)

             ; FUNCTION EC6266_CMD_B7 (BEGIN)
                                           ; SOURCE LINE # 584
                                           ; SOURCE LINE # 585
                                           ; SOURCE LINE # 587
0000 22                RET     
             ; FUNCTION EC6266_CMD_B7 (END)

             ; FUNCTION EC6266_CMD_B8 (BEGIN)
                                           ; SOURCE LINE # 592
                                           ; SOURCE LINE # 593
C51 COMPILER V7.06   OEM_EC6266                                                            07/06/2010 09:59:47 PAGE 36  

                                           ; SOURCE LINE # 595
0000 22                RET     
             ; FUNCTION EC6266_CMD_B8 (END)

             ; FUNCTION EC6266_CMD_B9 (BEGIN)
                                           ; SOURCE LINE # 600
                                           ; SOURCE LINE # 601
                                           ; SOURCE LINE # 603
0000 22                RET     
             ; FUNCTION EC6266_CMD_B9 (END)

             ; FUNCTION EC6266_CMD_BA (BEGIN)
                                           ; SOURCE LINE # 608
                                           ; SOURCE LINE # 609
                                           ; SOURCE LINE # 611
0000 22                RET     
             ; FUNCTION EC6266_CMD_BA (END)

             ; FUNCTION EC6266_CMD_BB (BEGIN)
                                           ; SOURCE LINE # 616
                                           ; SOURCE LINE # 617
                                           ; SOURCE LINE # 619
0000 22                RET     
             ; FUNCTION EC6266_CMD_BB (END)

             ; FUNCTION EC6266_CMD_BC (BEGIN)
                                           ; SOURCE LINE # 624
                                           ; SOURCE LINE # 625
                                           ; SOURCE LINE # 627
0000 22                RET     
             ; FUNCTION EC6266_CMD_BC (END)

             ; FUNCTION EC6266_CMD_BD (BEGIN)
                                           ; SOURCE LINE # 632
                                           ; SOURCE LINE # 633
                                           ; SOURCE LINE # 635
0000 22                RET     
             ; FUNCTION EC6266_CMD_BD (END)

             ; FUNCTION EC6266_CMD_BE (BEGIN)
                                           ; SOURCE LINE # 640
                                           ; SOURCE LINE # 641
                                           ; SOURCE LINE # 643
0000 22                RET     
             ; FUNCTION EC6266_CMD_BE (END)

             ; FUNCTION EC6266_CMD_BF (BEGIN)
                                           ; SOURCE LINE # 648
                                           ; SOURCE LINE # 649
                                           ; SOURCE LINE # 651
0000 22                RET     
             ; FUNCTION EC6266_CMD_BF (END)

             ; FUNCTION EC6266_CMD_C0 (BEGIN)
                                           ; SOURCE LINE # 656
                                           ; SOURCE LINE # 657
                                           ; SOURCE LINE # 659
0000 22                RET     
             ; FUNCTION EC6266_CMD_C0 (END)

             ; FUNCTION EC6266_CMD_C1 (BEGIN)
                                           ; SOURCE LINE # 664
C51 COMPILER V7.06   OEM_EC6266                                                            07/06/2010 09:59:47 PAGE 37  

                                           ; SOURCE LINE # 665
                                           ; SOURCE LINE # 667
0000 22                RET     
             ; FUNCTION EC6266_CMD_C1 (END)

             ; FUNCTION EC6266_CMD_C2 (BEGIN)
                                           ; SOURCE LINE # 672
                                           ; SOURCE LINE # 673
                                           ; SOURCE LINE # 675
0000 22                RET     
             ; FUNCTION EC6266_CMD_C2 (END)

             ; FUNCTION EC6266_CMD_C3 (BEGIN)
                                           ; SOURCE LINE # 680
                                           ; SOURCE LINE # 681
                                           ; SOURCE LINE # 683
0000 22                RET     
             ; FUNCTION EC6266_CMD_C3 (END)

             ; FUNCTION EC6266_CMD_C4 (BEGIN)
                                           ; SOURCE LINE # 688
                                           ; SOURCE LINE # 689
                                           ; SOURCE LINE # 691
0000 22                RET     
             ; FUNCTION EC6266_CMD_C4 (END)

             ; FUNCTION EC6266_CMD_C5 (BEGIN)
                                           ; SOURCE LINE # 696
                                           ; SOURCE LINE # 697
                                           ; SOURCE LINE # 699
0000 22                RET     
             ; FUNCTION EC6266_CMD_C5 (END)

             ; FUNCTION EC6266_CMD_C6 (BEGIN)
                                           ; SOURCE LINE # 704
                                           ; SOURCE LINE # 705
                                           ; SOURCE LINE # 707
0000 22                RET     
             ; FUNCTION EC6266_CMD_C6 (END)

             ; FUNCTION EC6266_CMD_C7 (BEGIN)
                                           ; SOURCE LINE # 712
                                           ; SOURCE LINE # 713
                                           ; SOURCE LINE # 715
0000 22                RET     
             ; FUNCTION EC6266_CMD_C7 (END)

             ; FUNCTION EC6266_CMD_C8 (BEGIN)
                                           ; SOURCE LINE # 720
                                           ; SOURCE LINE # 721
                                           ; SOURCE LINE # 723
0000 22                RET     
             ; FUNCTION EC6266_CMD_C8 (END)

             ; FUNCTION EC6266_CMD_C9 (BEGIN)
                                           ; SOURCE LINE # 728
                                           ; SOURCE LINE # 729
                                           ; SOURCE LINE # 731
0000 22                RET     
             ; FUNCTION EC6266_CMD_C9 (END)

             ; FUNCTION EC6266_CMD_CA (BEGIN)
C51 COMPILER V7.06   OEM_EC6266                                                            07/06/2010 09:59:47 PAGE 38  

                                           ; SOURCE LINE # 736
                                           ; SOURCE LINE # 737
                                           ; SOURCE LINE # 739
0000 22                RET     
             ; FUNCTION EC6266_CMD_CA (END)

             ; FUNCTION EC6266_CMD_CB (BEGIN)
                                           ; SOURCE LINE # 744
                                           ; SOURCE LINE # 745
                                           ; SOURCE LINE # 747
0000 22                RET     
             ; FUNCTION EC6266_CMD_CB (END)

             ; FUNCTION EC6266_CMD_CC (BEGIN)
                                           ; SOURCE LINE # 752
                                           ; SOURCE LINE # 753
                                           ; SOURCE LINE # 755
0000 22                RET     
             ; FUNCTION EC6266_CMD_CC (END)

             ; FUNCTION EC6266_CMD_CD (BEGIN)
                                           ; SOURCE LINE # 760
                                           ; SOURCE LINE # 761
                                           ; SOURCE LINE # 763
0000 22                RET     
             ; FUNCTION EC6266_CMD_CD (END)

             ; FUNCTION EC6266_CMD_CE (BEGIN)
                                           ; SOURCE LINE # 768
                                           ; SOURCE LINE # 769
                                           ; SOURCE LINE # 771
0000 22                RET     
             ; FUNCTION EC6266_CMD_CE (END)

             ; FUNCTION EC6266_CMD_CF (BEGIN)
                                           ; SOURCE LINE # 776
                                           ; SOURCE LINE # 777
                                           ; SOURCE LINE # 779
0000 22                RET     
             ; FUNCTION EC6266_CMD_CF (END)

             ; FUNCTION EC6266_CMD_D0 (BEGIN)
                                           ; SOURCE LINE # 784
                                           ; SOURCE LINE # 785
                                           ; SOURCE LINE # 787
0000 22                RET     
             ; FUNCTION EC6266_CMD_D0 (END)

             ; FUNCTION EC6266_CMD_D1 (BEGIN)
                                           ; SOURCE LINE # 792
                                           ; SOURCE LINE # 793
                                           ; SOURCE LINE # 794
0000 90200D            MOV     DPTR,#0200DH
0003 7403              MOV     A,#03H
0005 F0                MOVX    @DPTR,A
                                           ; SOURCE LINE # 795
0006 90200A            MOV     DPTR,#0200AH
0009 E4                CLR     A
000A F0                MOVX    @DPTR,A
                                           ; SOURCE LINE # 796
000B 22                RET     
             ; FUNCTION EC6266_CMD_D1 (END)
C51 COMPILER V7.06   OEM_EC6266                                                            07/06/2010 09:59:47 PAGE 39  


             ; FUNCTION EC6266_CMD_D2 (BEGIN)
                                           ; SOURCE LINE # 801
                                           ; SOURCE LINE # 802
                                           ; SOURCE LINE # 803
0000 90200D            MOV     DPTR,#0200DH
0003 7403              MOV     A,#03H
0005 F0                MOVX    @DPTR,A
                                           ; SOURCE LINE # 804
0006 90200A            MOV     DPTR,#0200AH
0009 7401              MOV     A,#01H
000B F0                MOVX    @DPTR,A
                                           ; SOURCE LINE # 805
000C 22                RET     
             ; FUNCTION EC6266_CMD_D2 (END)

             ; FUNCTION EC6266_CMD_D3 (BEGIN)
                                           ; SOURCE LINE # 810
                                           ; SOURCE LINE # 811
                                           ; SOURCE LINE # 813
0000 22                RET     
             ; FUNCTION EC6266_CMD_D3 (END)

             ; FUNCTION EC6266_CMD_D4 (BEGIN)
                                           ; SOURCE LINE # 818
                                           ; SOURCE LINE # 819
                                           ; SOURCE LINE # 821
0000 22                RET     
             ; FUNCTION EC6266_CMD_D4 (END)

             ; FUNCTION EC6266_CMD_D5 (BEGIN)
                                           ; SOURCE LINE # 826
                                           ; SOURCE LINE # 827
                                           ; SOURCE LINE # 829
0000 22                RET     
             ; FUNCTION EC6266_CMD_D5 (END)

             ; FUNCTION EC6266_CMD_D6 (BEGIN)
                                           ; SOURCE LINE # 834
                                           ; SOURCE LINE # 835
                                           ; SOURCE LINE # 837
0000 22                RET     
             ; FUNCTION EC6266_CMD_D6 (END)

             ; FUNCTION EC6266_CMD_D7 (BEGIN)
                                           ; SOURCE LINE # 842
                                           ; SOURCE LINE # 843
                                           ; SOURCE LINE # 845
0000 22                RET     
             ; FUNCTION EC6266_CMD_D7 (END)

             ; FUNCTION EC6266_CMD_D8 (BEGIN)
                                           ; SOURCE LINE # 850
                                           ; SOURCE LINE # 851
                                           ; SOURCE LINE # 853
0000 22                RET     
             ; FUNCTION EC6266_CMD_D8 (END)

             ; FUNCTION EC6266_CMD_D9 (BEGIN)
                                           ; SOURCE LINE # 858
                                           ; SOURCE LINE # 859
                                           ; SOURCE LINE # 861
C51 COMPILER V7.06   OEM_EC6266                                                            07/06/2010 09:59:47 PAGE 40  

0000 22                RET     
             ; FUNCTION EC6266_CMD_D9 (END)

             ; FUNCTION EC6266_CMD_DA (BEGIN)
                                           ; SOURCE LINE # 866
                                           ; SOURCE LINE # 867
                                           ; SOURCE LINE # 869
0000 22                RET     
             ; FUNCTION EC6266_CMD_DA (END)

             ; FUNCTION EC6266_CMD_DB (BEGIN)
                                           ; SOURCE LINE # 874
                                           ; SOURCE LINE # 875
                                           ; SOURCE LINE # 877
0000 22                RET     
             ; FUNCTION EC6266_CMD_DB (END)

             ; FUNCTION EC6266_CMD_DC (BEGIN)
                                           ; SOURCE LINE # 882
                                           ; SOURCE LINE # 883
                                           ; SOURCE LINE # 885
0000 020000      E     LJMP    ITE_Flash_Utility
             ; FUNCTION EC6266_CMD_DC (END)

             ; FUNCTION EC6266_CMD_DD (BEGIN)
                                           ; SOURCE LINE # 892
                                           ; SOURCE LINE # 893
                                           ; SOURCE LINE # 898
0000 22                RET     
             ; FUNCTION EC6266_CMD_DD (END)

             ; FUNCTION EC6266_CMD_DE (BEGIN)
                                           ; SOURCE LINE # 903
                                           ; SOURCE LINE # 904
                                           ; SOURCE LINE # 909
0000 22                RET     
             ; FUNCTION EC6266_CMD_DE (END)

             ; FUNCTION EC6266_CMD_DF (BEGIN)
                                           ; SOURCE LINE # 914
                                           ; SOURCE LINE # 915
                                           ; SOURCE LINE # 920
0000 22                RET     
             ; FUNCTION EC6266_CMD_DF (END)

             ; FUNCTION EC6266_CMD_E0 (BEGIN)
                                           ; SOURCE LINE # 925
                                           ; SOURCE LINE # 926
                                           ; SOURCE LINE # 953
0000 22                RET     
             ; FUNCTION EC6266_CMD_E0 (END)

             ; FUNCTION EC6266_CMD_E1 (BEGIN)
                                           ; SOURCE LINE # 958
                                           ; SOURCE LINE # 959
                                           ; SOURCE LINE # 963
0000 22                RET     
             ; FUNCTION EC6266_CMD_E1 (END)

             ; FUNCTION EC6266_CMD_E2 (BEGIN)
                                           ; SOURCE LINE # 968
                                           ; SOURCE LINE # 969
C51 COMPILER V7.06   OEM_EC6266                                                            07/06/2010 09:59:47 PAGE 41  

                                           ; SOURCE LINE # 971
0000 22                RET     
             ; FUNCTION EC6266_CMD_E2 (END)

             ; FUNCTION EC6266_CMD_E3 (BEGIN)
                                           ; SOURCE LINE # 976
                                           ; SOURCE LINE # 977
                                           ; SOURCE LINE # 979
0000 22                RET     
             ; FUNCTION EC6266_CMD_E3 (END)

             ; FUNCTION EC6266_CMD_E4 (BEGIN)
                                           ; SOURCE LINE # 984
                                           ; SOURCE LINE # 985
                                           ; SOURCE LINE # 987
0000 22                RET     
             ; FUNCTION EC6266_CMD_E4 (END)

             ; FUNCTION EC6266_CMD_E5 (BEGIN)
                                           ; SOURCE LINE # 992
                                           ; SOURCE LINE # 993
                                           ; SOURCE LINE # 995
0000 22                RET     
             ; FUNCTION EC6266_CMD_E5 (END)

             ; FUNCTION EC6266_CMD_E6 (BEGIN)
                                           ; SOURCE LINE # 1000
                                           ; SOURCE LINE # 1001
                                           ; SOURCE LINE # 1003
0000 22                RET     
             ; FUNCTION EC6266_CMD_E6 (END)

             ; FUNCTION EC6266_CMD_E7 (BEGIN)
                                           ; SOURCE LINE # 1008
                                           ; SOURCE LINE # 1009
                                           ; SOURCE LINE # 1011
0000 22                RET     
             ; FUNCTION EC6266_CMD_E7 (END)

             ; FUNCTION EC6266_CMD_E8 (BEGIN)
                                           ; SOURCE LINE # 1016
                                           ; SOURCE LINE # 1017
                                           ; SOURCE LINE # 1019
0000 22                RET     
             ; FUNCTION EC6266_CMD_E8 (END)

             ; FUNCTION EC6266_CMD_E9 (BEGIN)
                                           ; SOURCE LINE # 1024
                                           ; SOURCE LINE # 1025
                                           ; SOURCE LINE # 1027
0000 22                RET     
             ; FUNCTION EC6266_CMD_E9 (END)

             ; FUNCTION EC6266_CMD_EA (BEGIN)
                                           ; SOURCE LINE # 1032
                                           ; SOURCE LINE # 1033
                                           ; SOURCE LINE # 1035
0000 22                RET     
             ; FUNCTION EC6266_CMD_EA (END)

             ; FUNCTION EC6266_CMD_EB (BEGIN)
                                           ; SOURCE LINE # 1040
C51 COMPILER V7.06   OEM_EC6266                                                            07/06/2010 09:59:47 PAGE 42  

                                           ; SOURCE LINE # 1041
                                           ; SOURCE LINE # 1043
0000 22                RET     
             ; FUNCTION EC6266_CMD_EB (END)

             ; FUNCTION EC6266_CMD_EC (BEGIN)
                                           ; SOURCE LINE # 1048
                                           ; SOURCE LINE # 1049
                                           ; SOURCE LINE # 1051
0000 22                RET     
             ; FUNCTION EC6266_CMD_EC (END)

             ; FUNCTION EC6266_CMD_ED (BEGIN)
                                           ; SOURCE LINE # 1056
                                           ; SOURCE LINE # 1057
                                           ; SOURCE LINE # 1059
0000 22                RET     
             ; FUNCTION EC6266_CMD_ED (END)

             ; FUNCTION EC6266_CMD_EE (BEGIN)
                                           ; SOURCE LINE # 1064
                                           ; SOURCE LINE # 1065
                                           ; SOURCE LINE # 1067
0000 22                RET     
             ; FUNCTION EC6266_CMD_EE (END)

             ; FUNCTION EC6266_CMD_EF (BEGIN)
                                           ; SOURCE LINE # 1072
                                           ; SOURCE LINE # 1073
                                           ; SOURCE LINE # 1075
0000 22                RET     
             ; FUNCTION EC6266_CMD_EF (END)

             ; FUNCTION EC6266_CMD_F0 (BEGIN)
                                           ; SOURCE LINE # 1080
                                           ; SOURCE LINE # 1081
                                           ; SOURCE LINE # 1083
0000 900000      E     MOV     DPTR,#KeyScanACK
0003 74FF              MOV     A,#0FFH
0005 F0                MOVX    @DPTR,A
                                           ; SOURCE LINE # 1085
0006 22                RET     
             ; FUNCTION EC6266_CMD_F0 (END)

             ; FUNCTION EC6266_CMD_F1 (BEGIN)
                                           ; SOURCE LINE # 1090
                                           ; SOURCE LINE # 1091
                                           ; SOURCE LINE # 1093
0000 22                RET     
             ; FUNCTION EC6266_CMD_F1 (END)

             ; FUNCTION EC6266_CMD_F2 (BEGIN)
                                           ; SOURCE LINE # 1098
                                           ; SOURCE LINE # 1099
                                           ; SOURCE LINE # 1101
0000 22                RET     
             ; FUNCTION EC6266_CMD_F2 (END)

             ; FUNCTION EC6266_CMD_F3 (BEGIN)
                                           ; SOURCE LINE # 1106
                                           ; SOURCE LINE # 1107
                                           ; SOURCE LINE # 1109
C51 COMPILER V7.06   OEM_EC6266                                                            07/06/2010 09:59:47 PAGE 43  

0000 22                RET     
             ; FUNCTION EC6266_CMD_F3 (END)

             ; FUNCTION EC6266_CMD_F4 (BEGIN)
                                           ; SOURCE LINE # 1114
                                           ; SOURCE LINE # 1115
                                           ; SOURCE LINE # 1117
0000 22                RET     
             ; FUNCTION EC6266_CMD_F4 (END)

             ; FUNCTION EC6266_CMD_F5 (BEGIN)
                                           ; SOURCE LINE # 1122
                                           ; SOURCE LINE # 1123
                                           ; SOURCE LINE # 1125
0000 22                RET     
             ; FUNCTION EC6266_CMD_F5 (END)

             ; FUNCTION EC6266_CMD_F6 (BEGIN)
                                           ; SOURCE LINE # 1130
                                           ; SOURCE LINE # 1131
                                           ; SOURCE LINE # 1133
0000 22                RET     
             ; FUNCTION EC6266_CMD_F6 (END)

             ; FUNCTION EC6266_CMD_F7 (BEGIN)
                                           ; SOURCE LINE # 1138
                                           ; SOURCE LINE # 1139
                                           ; SOURCE LINE # 1141
0000 22                RET     
             ; FUNCTION EC6266_CMD_F7 (END)

             ; FUNCTION EC6266_CMD_F8 (BEGIN)
                                           ; SOURCE LINE # 1146
                                           ; SOURCE LINE # 1147
                                           ; SOURCE LINE # 1149
0000 22                RET     
             ; FUNCTION EC6266_CMD_F8 (END)

             ; FUNCTION EC6266_CMD_F9 (BEGIN)
                                           ; SOURCE LINE # 1154
                                           ; SOURCE LINE # 1155
                                           ; SOURCE LINE # 1157
0000 22                RET     
             ; FUNCTION EC6266_CMD_F9 (END)

             ; FUNCTION EC6266_CMD_FA (BEGIN)
                                           ; SOURCE LINE # 1162
                                           ; SOURCE LINE # 1163
                                           ; SOURCE LINE # 1165
0000 22                RET     
             ; FUNCTION EC6266_CMD_FA (END)

             ; FUNCTION EC6266_CMD_FB (BEGIN)
                                           ; SOURCE LINE # 1170
                                           ; SOURCE LINE # 1171
                                           ; SOURCE LINE # 1173
0000 22                RET     
             ; FUNCTION EC6266_CMD_FB (END)

             ; FUNCTION EC6266_CMD_FC (BEGIN)
                                           ; SOURCE LINE # 1178
                                           ; SOURCE LINE # 1179
C51 COMPILER V7.06   OEM_EC6266                                                            07/06/2010 09:59:47 PAGE 44  

                                           ; SOURCE LINE # 1181
0000 22                RET     
             ; FUNCTION EC6266_CMD_FC (END)

             ; FUNCTION EC6266_CMD_FD (BEGIN)
                                           ; SOURCE LINE # 1186
                                           ; SOURCE LINE # 1187
                                           ; SOURCE LINE # 1189
0000 22                RET     
             ; FUNCTION EC6266_CMD_FD (END)

             ; FUNCTION EC6266_CMD_FE (BEGIN)
                                           ; SOURCE LINE # 1194
                                           ; SOURCE LINE # 1195
                                           ; SOURCE LINE # 1197
0000 22                RET     
             ; FUNCTION EC6266_CMD_FE (END)

             ; FUNCTION EC6266_CMD_FF (BEGIN)
                                           ; SOURCE LINE # 1202
                                           ; SOURCE LINE # 1203
                                           ; SOURCE LINE # 1205
0000 22                RET     
             ; FUNCTION EC6266_CMD_FF (END)

             ; FUNCTION EC6266_CMD_NULL (BEGIN)
                                           ; SOURCE LINE # 1210
                                           ; SOURCE LINE # 1211
                                           ; SOURCE LINE # 1213
0000 22                RET     
             ; FUNCTION EC6266_CMD_NULL (END)

             ; FUNCTION EC62_DATA_STEP0 (BEGIN)
                                           ; SOURCE LINE # 1219
                                           ; SOURCE LINE # 1220
                                           ; SOURCE LINE # 1222
0000 22                RET     
             ; FUNCTION EC62_DATA_STEP0 (END)

             ; FUNCTION EC62_DATA_STEP4 (BEGIN)
                                           ; SOURCE LINE # 1228
                                           ; SOURCE LINE # 1229
                                           ; SOURCE LINE # 1231
0000 E500        E     MOV     A,PM1StepSP
0002 14                DEC     A
0003 6008              JZ      ?C0136
0005 14                DEC     A
0006 7008              JNZ     ?C0134
                                           ; SOURCE LINE # 1232
                                           ; SOURCE LINE # 1233
0008         ?C0135:
                                           ; SOURCE LINE # 1234
0008 850000      E     MOV     PM1Data1,PM1Data
                                           ; SOURCE LINE # 1235
000B 8003              SJMP    ?C0134
                                           ; SOURCE LINE # 1237
000D         ?C0136:
                                           ; SOURCE LINE # 1238
000D 120000      R     LCALL   Read_External_Ram
                                           ; SOURCE LINE # 1239
                                           ; SOURCE LINE # 1240
0010         ?C0134:
C51 COMPILER V7.06   OEM_EC6266                                                            07/06/2010 09:59:47 PAGE 45  

                                           ; SOURCE LINE # 1241
0010 1500        E     DEC     PM1StepSP
                                           ; SOURCE LINE # 1243
0012 22                RET     
             ; FUNCTION EC62_DATA_STEP4 (END)

             ; FUNCTION EC62_DATA_STEP5 (BEGIN)
                                           ; SOURCE LINE # 1249
                                           ; SOURCE LINE # 1250
                                           ; SOURCE LINE # 1252
0000 E500        E     MOV     A,PM1StepSP
0002 B40305            CJNE    A,#03H,?C0138
                                           ; SOURCE LINE # 1253
                                           ; SOURCE LINE # 1254
0005 850000      E     MOV     PM1Data2,PM1Data
                                           ; SOURCE LINE # 1255
0008 8012              SJMP    ?C0139
000A         ?C0138:
                                           ; SOURCE LINE # 1256
000A E500        E     MOV     A,PM1StepSP
000C B40205            CJNE    A,#02H,?C0140
                                           ; SOURCE LINE # 1257
                                           ; SOURCE LINE # 1258
000F 850000      E     MOV     PM1Data1,PM1Data
                                           ; SOURCE LINE # 1259
0012 8008              SJMP    ?C0139
0014         ?C0140:
                                           ; SOURCE LINE # 1260
0014 E500        E     MOV     A,PM1StepSP
0016 B40103            CJNE    A,#01H,?C0139
                                           ; SOURCE LINE # 1261
                                           ; SOURCE LINE # 1262
0019 120000      R     LCALL   Write_External_Ram
                                           ; SOURCE LINE # 1263
001C         ?C0139:
                                           ; SOURCE LINE # 1264
001C 1500        E     DEC     PM1StepSP
                                           ; SOURCE LINE # 1266
001E 22                RET     
             ; FUNCTION EC62_DATA_STEP5 (END)

             ; FUNCTION EC62_DATA_STEP6 (BEGIN)
                                           ; SOURCE LINE # 1272
                                           ; SOURCE LINE # 1273
                                           ; SOURCE LINE # 1275
0000 22                RET     
             ; FUNCTION EC62_DATA_STEP6 (END)

             ; FUNCTION EC62_DATA_STEP7 (BEGIN)
                                           ; SOURCE LINE # 1281
                                           ; SOURCE LINE # 1282
                                           ; SOURCE LINE # 1284
0000 22                RET     
             ; FUNCTION EC62_DATA_STEP7 (END)

             ; FUNCTION OEM_GetPort62Data (BEGIN)
                                           ; SOURCE LINE # 1290
                                           ; SOURCE LINE # 1291
                                           ; SOURCE LINE # 1294
0000 900000      R     MOV     DPTR,#iLOOP
0003 7402              MOV     A,#02H
0005 F0                MOVX    @DPTR,A
C51 COMPILER V7.06   OEM_EC6266                                                            07/06/2010 09:59:47 PAGE 46  

0006 A3                INC     DPTR
0007 E4                CLR     A
0008 F0                MOVX    @DPTR,A
0009         ?C0148:
                                           ; SOURCE LINE # 1297
                                           ; SOURCE LINE # 1298
0009 901500            MOV     DPTR,#01500H
000C E0                MOVX    A,@DPTR
000D 30E110            JNB     ACC.1,?C0149
                                           ; SOURCE LINE # 1299
                                           ; SOURCE LINE # 1300
0010 E0                MOVX    A,@DPTR
0011 30E303            JNB     ACC.3,?C0150
                                           ; SOURCE LINE # 1301
                                           ; SOURCE LINE # 1302
0014 7F00              MOV     R7,#00H
0016 22                RET     
                                           ; SOURCE LINE # 1303
0017         ?C0150:
                                           ; SOURCE LINE # 1305
                                           ; SOURCE LINE # 1306
0017 901504            MOV     DPTR,#01504H
001A E0                MOVX    A,@DPTR
001B F500        E     MOV     PM1Data,A
                                           ; SOURCE LINE # 1307
001D 7F01              MOV     R7,#01H
001F 22                RET     
                                           ; SOURCE LINE # 1308
                                           ; SOURCE LINE # 1309
0020         ?C0149:
                                           ; SOURCE LINE # 1311
0020 900000      R     MOV     DPTR,#iLOOP
0023 74FF              MOV     A,#0FFH
0025 F5F0              MOV     B,A
0027 120000      E     LCALL   ?C?IILDX
                                           ; SOURCE LINE # 1312
                                           ; SOURCE LINE # 1313
002A 900000      R     MOV     DPTR,#iLOOP
002D E0                MOVX    A,@DPTR
002E 7002              JNZ     ?C0168
0030 A3                INC     DPTR
0031 E0                MOVX    A,@DPTR
0032         ?C0168:
0032 70D5              JNZ     ?C0148
                                           ; SOURCE LINE # 1315
0034 FF                MOV     R7,A
                                           ; SOURCE LINE # 1317
0035         ?C0151:
0035 22                RET     
             ; FUNCTION OEM_GetPort62Data (END)

             ; FUNCTION EC_Cmd_0X (BEGIN)
                                           ; SOURCE LINE # 1501
                                           ; SOURCE LINE # 1502
                                           ; SOURCE LINE # 1504
0000 E500        E     MOV     A,PM1Cmd
0002 540F              ANL     A,#0FH
0004 25E0              ADD     A,ACC
0006 2400        R     ADD     A,#LOW EC6266NULL_Table
0008 F582              MOV     DPL,A
000A E4                CLR     A
000B 3400        R     ADDC    A,#HIGH EC6266NULL_Table
C51 COMPILER V7.06   OEM_EC6266                                                            07/06/2010 09:59:47 PAGE 47  

000D F583              MOV     DPH,A
000F E4                CLR     A
0010 93                MOVC    A,@A+DPTR
0011 FE                MOV     R6,A
0012 7401              MOV     A,#01H
0014 93                MOVC    A,@A+DPTR
0015 AA06              MOV     R2,AR6
0017 F9                MOV     R1,A
0018 020000      E     LJMP    ?C?ICALL
             ; FUNCTION EC_Cmd_0X (END)

             ; FUNCTION EC_Cmd_1X (BEGIN)
                                           ; SOURCE LINE # 1507
                                           ; SOURCE LINE # 1508
                                           ; SOURCE LINE # 1510
0000 E500        E     MOV     A,PM1Cmd
0002 540F              ANL     A,#0FH
0004 25E0              ADD     A,ACC
0006 2400        R     ADD     A,#LOW EC6266NULL_Table
0008 F582              MOV     DPL,A
000A E4                CLR     A
000B 3400        R     ADDC    A,#HIGH EC6266NULL_Table
000D F583              MOV     DPH,A
000F E4                CLR     A
0010 93                MOVC    A,@A+DPTR
0011 FE                MOV     R6,A
0012 7401              MOV     A,#01H
0014 93                MOVC    A,@A+DPTR
0015 AA06              MOV     R2,AR6
0017 F9                MOV     R1,A
0018 020000      E     LJMP    ?C?ICALL
             ; FUNCTION EC_Cmd_1X (END)

             ; FUNCTION EC_Cmd_2X (BEGIN)
                                           ; SOURCE LINE # 1513
                                           ; SOURCE LINE # 1514
                                           ; SOURCE LINE # 1516
0000 E500        E     MOV     A,PM1Cmd
0002 540F              ANL     A,#0FH
0004 25E0              ADD     A,ACC
0006 2400        R     ADD     A,#LOW EC6266NULL_Table
0008 F582              MOV     DPL,A
000A E4                CLR     A
000B 3400        R     ADDC    A,#HIGH EC6266NULL_Table
000D F583              MOV     DPH,A
000F E4                CLR     A
0010 93                MOVC    A,@A+DPTR
0011 FE                MOV     R6,A
0012 7401              MOV     A,#01H
0014 93                MOVC    A,@A+DPTR
0015 AA06              MOV     R2,AR6
0017 F9                MOV     R1,A
0018 020000      E     LJMP    ?C?ICALL
             ; FUNCTION EC_Cmd_2X (END)

             ; FUNCTION EC_Cmd_3X (BEGIN)
                                           ; SOURCE LINE # 1519
                                           ; SOURCE LINE # 1520
                                           ; SOURCE LINE # 1522
0000 E500        E     MOV     A,PM1Cmd
0002 540F              ANL     A,#0FH
0004 25E0              ADD     A,ACC
C51 COMPILER V7.06   OEM_EC6266                                                            07/06/2010 09:59:47 PAGE 48  

0006 2400        R     ADD     A,#LOW EC6266NULL_Table
0008 F582              MOV     DPL,A
000A E4                CLR     A
000B 3400        R     ADDC    A,#HIGH EC6266NULL_Table
000D F583              MOV     DPH,A
000F E4                CLR     A
0010 93                MOVC    A,@A+DPTR
0011 FE                MOV     R6,A
0012 7401              MOV     A,#01H
0014 93                MOVC    A,@A+DPTR
0015 AA06              MOV     R2,AR6
0017 F9                MOV     R1,A
0018 020000      E     LJMP    ?C?ICALL
             ; FUNCTION EC_Cmd_3X (END)

             ; FUNCTION EC_Cmd_4X (BEGIN)
                                           ; SOURCE LINE # 1525
                                           ; SOURCE LINE # 1526
                                           ; SOURCE LINE # 1528
0000 E500        E     MOV     A,PM1Cmd
0002 540F              ANL     A,#0FH
0004 25E0              ADD     A,ACC
0006 2400        R     ADD     A,#LOW EC6266NULL_Table
0008 F582              MOV     DPL,A
000A E4                CLR     A
000B 3400        R     ADDC    A,#HIGH EC6266NULL_Table
000D F583              MOV     DPH,A
000F E4                CLR     A
0010 93                MOVC    A,@A+DPTR
0011 FE                MOV     R6,A
0012 7401              MOV     A,#01H
0014 93                MOVC    A,@A+DPTR
0015 AA06              MOV     R2,AR6
0017 F9                MOV     R1,A
0018 020000      E     LJMP    ?C?ICALL
             ; FUNCTION EC_Cmd_4X (END)

             ; FUNCTION EC_Cmd_5X (BEGIN)
                                           ; SOURCE LINE # 1531
                                           ; SOURCE LINE # 1532
                                           ; SOURCE LINE # 1534
0000 E500        E     MOV     A,PM1Cmd
0002 540F              ANL     A,#0FH
0004 25E0              ADD     A,ACC
0006 2400        R     ADD     A,#LOW EC6266NULL_Table
0008 F582              MOV     DPL,A
000A E4                CLR     A
000B 3400        R     ADDC    A,#HIGH EC6266NULL_Table
000D F583              MOV     DPH,A
000F E4                CLR     A
0010 93                MOVC    A,@A+DPTR
0011 FE                MOV     R6,A
0012 7401              MOV     A,#01H
0014 93                MOVC    A,@A+DPTR
0015 AA06              MOV     R2,AR6
0017 F9                MOV     R1,A
0018 020000      E     LJMP    ?C?ICALL
             ; FUNCTION EC_Cmd_5X (END)

             ; FUNCTION EC_Cmd_6X (BEGIN)
                                           ; SOURCE LINE # 1537
                                           ; SOURCE LINE # 1538
C51 COMPILER V7.06   OEM_EC6266                                                            07/06/2010 09:59:47 PAGE 49  

                                           ; SOURCE LINE # 1540
0000 E500        E     MOV     A,PM1Cmd
0002 540F              ANL     A,#0FH
0004 25E0              ADD     A,ACC
0006 2400        R     ADD     A,#LOW EC6266NULL_Table
0008 F582              MOV     DPL,A
000A E4                CLR     A
000B 3400        R     ADDC    A,#HIGH EC6266NULL_Table
000D F583              MOV     DPH,A
000F E4                CLR     A
0010 93                MOVC    A,@A+DPTR
0011 FE                MOV     R6,A
0012 7401              MOV     A,#01H
0014 93                MOVC    A,@A+DPTR
0015 AA06              MOV     R2,AR6
0017 F9                MOV     R1,A
0018 020000      E     LJMP    ?C?ICALL
             ; FUNCTION EC_Cmd_6X (END)

             ; FUNCTION EC_Cmd_7X (BEGIN)
                                           ; SOURCE LINE # 1543
                                           ; SOURCE LINE # 1544
                                           ; SOURCE LINE # 1546
0000 E500        E     MOV     A,PM1Cmd
0002 540F              ANL     A,#0FH
0004 25E0              ADD     A,ACC
0006 2400        R     ADD     A,#LOW EC6266NULL_Table
0008 F582              MOV     DPL,A
000A E4                CLR     A
000B 3400        R     ADDC    A,#HIGH EC6266NULL_Table
000D F583              MOV     DPH,A
000F E4                CLR     A
0010 93                MOVC    A,@A+DPTR
0011 FE                MOV     R6,A
0012 7401              MOV     A,#01H
0014 93                MOVC    A,@A+DPTR
0015 AA06              MOV     R2,AR6
0017 F9                MOV     R1,A
0018 020000      E     LJMP    ?C?ICALL
             ; FUNCTION EC_Cmd_7X (END)

             ; FUNCTION EC_Cmd_9X (BEGIN)
                                           ; SOURCE LINE # 1549
                                           ; SOURCE LINE # 1550
                                           ; SOURCE LINE # 1551
0000 E500        E     MOV     A,PM1Cmd
0002 540F              ANL     A,#0FH
0004 25E0              ADD     A,ACC
0006 2400        R     ADD     A,#LOW EC6266Cmd9X_Table
0008 F582              MOV     DPL,A
000A E4                CLR     A
000B 3400        R     ADDC    A,#HIGH EC6266Cmd9X_Table
000D F583              MOV     DPH,A
000F E4                CLR     A
0010 93                MOVC    A,@A+DPTR
0011 FE                MOV     R6,A
0012 7401              MOV     A,#01H
0014 93                MOVC    A,@A+DPTR
0015 AA06              MOV     R2,AR6
0017 F9                MOV     R1,A
0018 020000      E     LJMP    ?C?ICALL
             ; FUNCTION EC_Cmd_9X (END)
C51 COMPILER V7.06   OEM_EC6266                                                            07/06/2010 09:59:47 PAGE 50  


             ; FUNCTION EC_Cmd_AX (BEGIN)
                                           ; SOURCE LINE # 1554
                                           ; SOURCE LINE # 1555
                                           ; SOURCE LINE # 1556
0000 E500        E     MOV     A,PM1Cmd
0002 540F              ANL     A,#0FH
0004 25E0              ADD     A,ACC
0006 2400        R     ADD     A,#LOW EC6266CmdAX_Table
0008 F582              MOV     DPL,A
000A E4                CLR     A
000B 3400        R     ADDC    A,#HIGH EC6266CmdAX_Table
000D F583              MOV     DPH,A
000F E4                CLR     A
0010 93                MOVC    A,@A+DPTR
0011 FE                MOV     R6,A
0012 7401              MOV     A,#01H
0014 93                MOVC    A,@A+DPTR
0015 AA06              MOV     R2,AR6
0017 F9                MOV     R1,A
0018 020000      E     LJMP    ?C?ICALL
             ; FUNCTION EC_Cmd_AX (END)

             ; FUNCTION EC_Cmd_BX (BEGIN)
                                           ; SOURCE LINE # 1559
                                           ; SOURCE LINE # 1560
                                           ; SOURCE LINE # 1561
0000 E500        E     MOV     A,PM1Cmd
0002 540F              ANL     A,#0FH
0004 25E0              ADD     A,ACC
0006 2400        R     ADD     A,#LOW EC6266CmdBX_Table
0008 F582              MOV     DPL,A
000A E4                CLR     A
000B 3400        R     ADDC    A,#HIGH EC6266CmdBX_Table
000D F583              MOV     DPH,A
000F E4                CLR     A
0010 93                MOVC    A,@A+DPTR
0011 FE                MOV     R6,A
0012 7401              MOV     A,#01H
0014 93                MOVC    A,@A+DPTR
0015 AA06              MOV     R2,AR6
0017 F9                MOV     R1,A
0018 020000      E     LJMP    ?C?ICALL
             ; FUNCTION EC_Cmd_BX (END)

             ; FUNCTION EC_Cmd_CX (BEGIN)
                                           ; SOURCE LINE # 1564
                                           ; SOURCE LINE # 1565
                                           ; SOURCE LINE # 1566
0000 E500        E     MOV     A,PM1Cmd
0002 540F              ANL     A,#0FH
0004 25E0              ADD     A,ACC
0006 2400        R     ADD     A,#LOW EC6266CmdCX_Table
0008 F582              MOV     DPL,A
000A E4                CLR     A
000B 3400        R     ADDC    A,#HIGH EC6266CmdCX_Table
000D F583              MOV     DPH,A
000F E4                CLR     A
0010 93                MOVC    A,@A+DPTR
0011 FE                MOV     R6,A
0012 7401              MOV     A,#01H
0014 93                MOVC    A,@A+DPTR
C51 COMPILER V7.06   OEM_EC6266                                                            07/06/2010 09:59:47 PAGE 51  

0015 AA06              MOV     R2,AR6
0017 F9                MOV     R1,A
0018 020000      E     LJMP    ?C?ICALL
             ; FUNCTION EC_Cmd_CX (END)

             ; FUNCTION EC_Cmd_DX (BEGIN)
                                           ; SOURCE LINE # 1569
                                           ; SOURCE LINE # 1570
                                           ; SOURCE LINE # 1571
0000 E500        E     MOV     A,PM1Cmd
0002 540F              ANL     A,#0FH
0004 25E0              ADD     A,ACC
0006 2400        R     ADD     A,#LOW EC6266CmdDX_Table
0008 F582              MOV     DPL,A
000A E4                CLR     A
000B 3400        R     ADDC    A,#HIGH EC6266CmdDX_Table
000D F583              MOV     DPH,A
000F E4                CLR     A
0010 93                MOVC    A,@A+DPTR
0011 FE                MOV     R6,A
0012 7401              MOV     A,#01H
0014 93                MOVC    A,@A+DPTR
0015 AA06              MOV     R2,AR6
0017 F9                MOV     R1,A
0018 020000      E     LJMP    ?C?ICALL
             ; FUNCTION EC_Cmd_DX (END)

             ; FUNCTION EC_Cmd_EX (BEGIN)
                                           ; SOURCE LINE # 1574
                                           ; SOURCE LINE # 1575
                                           ; SOURCE LINE # 1576
0000 E500        E     MOV     A,PM1Cmd
0002 540F              ANL     A,#0FH
0004 25E0              ADD     A,ACC
0006 2400        R     ADD     A,#LOW EC6266CmdEX_Table
0008 F582              MOV     DPL,A
000A E4                CLR     A
000B 3400        R     ADDC    A,#HIGH EC6266CmdEX_Table
000D F583              MOV     DPH,A
000F E4                CLR     A
0010 93                MOVC    A,@A+DPTR
0011 FE                MOV     R6,A
0012 7401              MOV     A,#01H
0014 93                MOVC    A,@A+DPTR
0015 AA06              MOV     R2,AR6
0017 F9                MOV     R1,A
0018 020000      E     LJMP    ?C?ICALL
             ; FUNCTION EC_Cmd_EX (END)

             ; FUNCTION EC_Cmd_FX (BEGIN)
                                           ; SOURCE LINE # 1579
                                           ; SOURCE LINE # 1580
                                           ; SOURCE LINE # 1581
0000 E500        E     MOV     A,PM1Cmd
0002 540F              ANL     A,#0FH
0004 25E0              ADD     A,ACC
0006 2400        R     ADD     A,#LOW EC6266CmdFX_Table
0008 F582              MOV     DPL,A
000A E4                CLR     A
000B 3400        R     ADDC    A,#HIGH EC6266CmdFX_Table
000D F583              MOV     DPH,A
000F E4                CLR     A
C51 COMPILER V7.06   OEM_EC6266                                                            07/06/2010 09:59:47 PAGE 52  

0010 93                MOVC    A,@A+DPTR
0011 FE                MOV     R6,A
0012 7401              MOV     A,#01H
0014 93                MOVC    A,@A+DPTR
0015 AA06              MOV     R2,AR6
0017 F9                MOV     R1,A
0018 020000      E     LJMP    ?C?ICALL
             ; FUNCTION EC_Cmd_FX (END)



MODULE INFORMATION:   STATIC OVERLAYABLE
   CODE SIZE        =    873    ----
   CONSTANT SIZE    =    256    ----
   XDATA SIZE       =   ----       2
   PDATA SIZE       =   ----    ----
   DATA SIZE        =   ----    ----
   IDATA SIZE       =   ----    ----
   BIT SIZE         =   ----    ----
END OF MODULE INFORMATION.


C51 COMPILATION COMPLETE.  0 WARNING(S),  0 ERROR(S)
