C51 COMPILER V7.06   OEM_PMC2                                                              07/06/2010 09:59:50 PAGE 1   


C51 COMPILER V7.06, COMPILATION OF MODULE OEM_PMC2
OBJECT MODULE PLACED IN SOURCE\OEM_PMC2.OBJ
COMPILER INVOKED BY: C:\Keil\C51\BIN\c51.exe SOURCE\OEM_PMC2.C LA WL(1) CD OT(8,SIZE) OR

stmt level    source

   1          /*-----------------------------------------------------------------------------
   2           * Filename: OEM_PMC2.C
   3           * Function: OEM Power Management Channel-2 Command Handle
   4           *           Usually decode Port 0x68/0x6C,Access Rules same as KBC.
   5           *
   6           * Copyright (c) 2006-2009, ITE Tech. Inc. All Rights Reserved.
   7           *---------------------------------------------------------------------------*/
   8          #include "CORE_INCLUDE.H"
   9          #include "OEM_INCLUDE.H"
  10          
  11          /*-----------------------------------------------------------------------------
  12           * Local Parameter Definition
  13           *---------------------------------------------------------------------------*/
  14          //#define   XXX     X
  15          
  16          //----------------------------------------------------------------------------
  17          /* Customer : ??? Model: XXX
  18          //----------------------------------------------------------------------------
  19           * OEM Power Management Controller Commands
  20          //----------------------------------------------------------------------------
  21           * Command - Description
  22          //----------------------------------------------------------------------------
  23           * PMC2_CMD_80: ...
  24           * PMC2_CMD_81:
  25           * PMC2_CMD_82:
  26           *
  27          //----------------------------------------------------------------------------
  28          */
  29          //----------------------------------------------------------------------------
  30          
  31          //****************************************************************************
  32          #if  SUPPORTED_PMC2_0X
  33          //----------------------------------------------------------------------------
  34          void PMC2_CMD_00(void)
  35          {
  36   1      }
  37          //----------------------------------------------------------------------------
  38          void PMC2_CMD_01(void)
  39          {
  40   1      }
  41          //----------------------------------------------------------------------------
  42          void PMC2_CMD_02(void)
  43          {
  44   1      }
  45          //----------------------------------------------------------------------------
  46          void PMC2_CMD_03(void)
  47          {
  48   1      }
  49          //----------------------------------------------------------------------------
  50          void PMC2_CMD_04(void)
  51          {
  52   1      }
  53          //----------------------------------------------------------------------------
  54          void PMC2_CMD_05(void)
  55          {
C51 COMPILER V7.06   OEM_PMC2                                                              07/06/2010 09:59:50 PAGE 2   

  56   1      }
  57          //----------------------------------------------------------------------------
  58          void PMC2_CMD_06(void)
  59          {
  60   1      }
  61          //----------------------------------------------------------------------------
  62          void PMC2_CMD_07(void)
  63          {
  64   1      }
  65          //----------------------------------------------------------------------------
  66          void PMC2_CMD_08(void)
  67          {
  68   1      }
  69          //----------------------------------------------------------------------------
  70          void PMC2_CMD_09(void)
  71          {
  72   1      }
  73          //----------------------------------------------------------------------------
  74          void PMC2_CMD_0A(void)
  75          {
  76   1      }
  77          //----------------------------------------------------------------------------
  78          void PMC2_CMD_0B(void)
  79          {
  80   1      }
  81          //----------------------------------------------------------------------------
  82          void PMC2_CMD_0C(void)
  83          {
  84   1      }
  85          //----------------------------------------------------------------------------
  86          void PMC2_CMD_0D(void)
  87          {
  88   1      }
  89          //----------------------------------------------------------------------------
  90          void PMC2_CMD_0E(void)
  91          {
  92   1      }
  93          //----------------------------------------------------------------------------
  94          void PMC2_CMD_0F(void)
  95          {
  96   1      }
  97          //----------------------------------------------------------------------------
  98          #endif
  99          //****************************************************************************
 100          #if  SUPPORTED_PMC2_1X
 101          //----------------------------------------------------------------------------
 102          void PMC2_CMD_10(void)
 103          {
 104   1      }
 105          //----------------------------------------------------------------------------
 106          void PMC2_CMD_11(void)
 107          {
 108   1      }
 109          //----------------------------------------------------------------------------
 110          void PMC2_CMD_12(void)
 111          {
 112   1      }
 113          //----------------------------------------------------------------------------
 114          void PMC2_CMD_13(void)
 115          {
 116   1      }
 117          //----------------------------------------------------------------------------
C51 COMPILER V7.06   OEM_PMC2                                                              07/06/2010 09:59:50 PAGE 3   

 118          void PMC2_CMD_14(void)
 119          {
 120   1      }
 121          //----------------------------------------------------------------------------
 122          void PMC2_CMD_15(void)
 123          {
 124   1          PM2DO = 0;
 125   1      }
 126          //----------------------------------------------------------------------------
 127          void PMC2_CMD_16(void)
 128          {
 129   1      }
 130          //----------------------------------------------------------------------------
 131          void PMC2_CMD_17(void)
 132          {
 133   1      }
 134          //----------------------------------------------------------------------------
 135          void PMC2_CMD_18(void)
 136          {
 137   1      }
 138          //----------------------------------------------------------------------------
 139          void PMC2_CMD_19(void)
 140          {
 141   1      }
 142          //----------------------------------------------------------------------------
 143          void PMC2_CMD_1A(void)
 144          {
 145   1          PM2DO = 0;
 146   1      }
 147          //----------------------------------------------------------------------------
 148          void PMC2_CMD_1B(void)
 149          {
 150   1      }
 151          //----------------------------------------------------------------------------
 152          void PMC2_CMD_1C(void)
 153          {
 154   1      }
 155          //----------------------------------------------------------------------------
 156          void PMC2_CMD_1D(void)
 157          {
 158   1      }
 159          //----------------------------------------------------------------------------
 160          void PMC2_CMD_1E(void)
 161          {
 162   1      }
 163          //----------------------------------------------------------------------------
 164          void PMC2_CMD_1F(void)
 165          {
 166   1      }
 167          //----------------------------------------------------------------------------
 168          #endif
 169          //****************************************************************************
 170          #if  SUPPORTED_PMC2_2X
 171          //----------------------------------------------------------------------------
 172          void PMC2_CMD_20(void)
 173          {
 174   1      }
 175          //----------------------------------------------------------------------------
 176          void PMC2_CMD_21(void)
 177          {
 178   1          PM2DO = 0;
 179   1      }
C51 COMPILER V7.06   OEM_PMC2                                                              07/06/2010 09:59:50 PAGE 4   

 180          //----------------------------------------------------------------------------
 181          void PMC2_CMD_22(void)
 182          {
 183   1      
 184   1      }
 185          //----------------------------------------------------------------------------
 186          void PMC2_CMD_23(void)
 187          {
 188   1      }
 189          //----------------------------------------------------------------------------
 190          void PMC2_CMD_24(void)
 191          {
 192   1      }
 193          //----------------------------------------------------------------------------
 194          void PMC2_CMD_25(void)
 195          {
 196   1      }
 197          //----------------------------------------------------------------------------
 198          void PMC2_CMD_26(void)
 199          {
 200   1      }
 201          //----------------------------------------------------------------------------
 202          void PMC2_CMD_27(void)
 203          {
 204   1      }
 205          //----------------------------------------------------------------------------
 206          void PMC2_CMD_28(void)
 207          {
 208   1      }
 209          //----------------------------------------------------------------------------
 210          void PMC2_CMD_29(void)
 211          {
 212   1      }
 213          //----------------------------------------------------------------------------
 214          void PMC2_CMD_2A(void)
 215          {
 216   1      }
 217          //----------------------------------------------------------------------------
 218          void PMC2_CMD_2B(void)
 219          {
 220   1      }
 221          //----------------------------------------------------------------------------
 222          void PMC2_CMD_2C(void)
 223          {
 224   1      }
 225          //----------------------------------------------------------------------------
 226          void PMC2_CMD_2D(void)
 227          {
 228   1      }
 229          //----------------------------------------------------------------------------
 230          void PMC2_CMD_2E(void)
 231          {
 232   1      }
 233          //----------------------------------------------------------------------------
 234          void PMC2_CMD_2F(void)
 235          {
 236   1      }
 237          //----------------------------------------------------------------------------
 238          #endif
 239          //****************************************************************************
 240          #if  SUPPORTED_PMC2_3X
 241          //----------------------------------------------------------------------------
C51 COMPILER V7.06   OEM_PMC2                                                              07/06/2010 09:59:50 PAGE 5   

 242          void PMC2_CMD_30(void)
 243          {
 244   1      
 245   1      }
 246          //----------------------------------------------------------------------------
 247          void PMC2_CMD_31(void)
 248          {
 249   1      
 250   1      }
 251          //----------------------------------------------------------------------------
 252          void PMC2_CMD_32(void)
 253          {
 254   1      
 255   1      }
 256          //----------------------------------------------------------------------------
 257          void PMC2_CMD_33(void)
 258          {
 259   1          if ( SetGetPortPM2Data() )  //Get PM2Data
 260   1          {
 261   2              PM2DO = 0x00;
 262   2          }
 263   1      }
 264          //----------------------------------------------------------------------------
 265          void PMC2_CMD_34(void)
 266          {
 267   1          PM2DO = 0x00;
 268   1      }
 269          //----------------------------------------------------------------------------
 270          void PMC2_CMD_35(void)
 271          {
 272   1          PM2DO = 0x00;
 273   1      }
 274          //----------------------------------------------------------------------------
 275          void PMC2_CMD_36(void)
 276          {
 277   1          PM2DO = POWER_FLAG1;
 278   1      }
 279          //----------------------------------------------------------------------------
 280          void PMC2_CMD_37(void)
 281          {
 282   1          PM2DO = 0x00;
 283   1      }
 284          //----------------------------------------------------------------------------
 285          void PMC2_CMD_38(void)
 286          {
 287   1          PM2DO = 0x00;
 288   1      }
 289          //----------------------------------------------------------------------------
 290          void PMC2_CMD_39(void)
 291          {
 292   1          PM2DO = 0x00;
 293   1      }
 294          //----------------------------------------------------------------------------
 295          void PMC2_CMD_3A(void)
 296          {
 297   1      }
 298          //----------------------------------------------------------------------------
 299          void PMC2_CMD_3B(void)
 300          {
 301   1      }
 302          //----------------------------------------------------------------------------
 303          void PMC2_CMD_3C(void)
C51 COMPILER V7.06   OEM_PMC2                                                              07/06/2010 09:59:50 PAGE 6   

 304          {
 305   1      }
 306          //----------------------------------------------------------------------------
 307          void PMC2_CMD_3D(void)
 308          {
 309   1      }
 310          //----------------------------------------------------------------------------
 311          void PMC2_CMD_3E(void)
 312          {
 313   1      }
 314          //----------------------------------------------------------------------------
 315          void PMC2_CMD_3F(void)
 316          {
 317   1      }
 318          //----------------------------------------------------------------------------
 319          void PMC2_CMD_40(void)
 320          {
 321   1      }
 322          //----------------------------------------------------------------------------
 323          #endif
 324          //****************************************************************************
 325          #if  SUPPORTED_PMC2_4X
 326          //----------------------------------------------------------------------------
 327          void PMC2_CMD_41(void)
 328          {
 329   1      }
 330          //----------------------------------------------------------------------------
 331          void PMC2_CMD_42(void)
 332          {
 333   1      }
 334          //----------------------------------------------------------------------------
 335          void PMC2_CMD_43(void)
 336          {
 337   1      }
 338          //----------------------------------------------------------------------------
 339          void PMC2_CMD_44(void)
 340          {
 341   1      }
 342          //----------------------------------------------------------------------------
 343          void PMC2_CMD_45(void)
 344          {
 345   1      }
 346          //----------------------------------------------------------------------------
 347          void PMC2_CMD_46(void)
 348          {
 349   1      }
 350          //----------------------------------------------------------------------------
 351          void PMC2_CMD_47(void)
 352          {
 353   1      }
 354          //----------------------------------------------------------------------------
 355          void PMC2_CMD_48(void)
 356          {
 357   1      }
 358          //----------------------------------------------------------------------------
 359          void PMC2_CMD_49(void)
 360          {
 361   1      }
 362          //----------------------------------------------------------------------------
 363          void PMC2_CMD_4A(void)
 364          {
 365   1      }
C51 COMPILER V7.06   OEM_PMC2                                                              07/06/2010 09:59:50 PAGE 7   

 366          //----------------------------------------------------------------------------
 367          void PMC2_CMD_4B(void)
 368          {
 369   1      }
 370          //----------------------------------------------------------------------------
 371          void PMC2_CMD_4C(void)
 372          {
 373   1      }
 374          //----------------------------------------------------------------------------
 375          void PMC2_CMD_4D(void)
 376          {
 377   1      }
 378          //----------------------------------------------------------------------------
 379          void PMC2_CMD_4E(void)
 380          {
 381   1      }
 382          //----------------------------------------------------------------------------
 383          void PMC2_CMD_4F(void)
 384          {
 385   1      }
 386          //----------------------------------------------------------------------------
 387          #endif
 388          //****************************************************************************
 389          #if  SUPPORTED_PMC2_5X
 390          //----------------------------------------------------------------------------
 391          void PMC2_CMD_50(void)
 392          {
 393   1      }
 394          //----------------------------------------------------------------------------
 395          void PMC2_CMD_51(void)
 396          {
 397   1      }
 398          //----------------------------------------------------------------------------
 399          void PMC2_CMD_52(void)
 400          {
 401   1      }
 402          //----------------------------------------------------------------------------
 403          void PMC2_CMD_53(void)
 404          {
 405   1      }
 406          //----------------------------------------------------------------------------
 407          void PMC2_CMD_54(void)
 408          {
 409   1      }
 410          //----------------------------------------------------------------------------
 411          void PMC2_CMD_55(void)
 412          {
 413   1      }
 414          //----------------------------------------------------------------------------
 415          void PMC2_CMD_56(void)
 416          {
 417   1      }
 418          //----------------------------------------------------------------------------
 419          void PMC2_CMD_57(void)
 420          {
 421   1      }
 422          //----------------------------------------------------------------------------
 423          void PMC2_CMD_58(void)
 424          {
 425   1      }
 426          //----------------------------------------------------------------------------
 427          void PMC2_CMD_59(void)
C51 COMPILER V7.06   OEM_PMC2                                                              07/06/2010 09:59:50 PAGE 8   

 428          {
 429   1      }
 430          //----------------------------------------------------------------------------
 431          void PMC2_CMD_5A(void)
 432          {
 433   1      }
 434          //----------------------------------------------------------------------------
 435          void PMC2_CMD_5B(void)
 436          {
 437   1      }
 438          //----------------------------------------------------------------------------
 439          void PMC2_CMD_5C(void)
 440          {
 441   1      }
 442          //----------------------------------------------------------------------------
 443          void PMC2_CMD_5D(void)
 444          {
 445   1      }
 446          //----------------------------------------------------------------------------
 447          void PMC2_CMD_5E(void)
 448          {
 449   1      }
 450          //----------------------------------------------------------------------------
 451          void PMC2_CMD_5F(void)
 452          {
 453   1      }
 454          //----------------------------------------------------------------------------
 455          #endif
 456          //****************************************************************************
 457          #if  SUPPORTED_PMC2_6X
 458          //----------------------------------------------------------------------------
 459          void PMC2_CMD_60(void)
 460          {
 461   1      }
 462          //----------------------------------------------------------------------------
 463          void PMC2_CMD_61(void)
 464          {
 465   1      }
 466          //----------------------------------------------------------------------------
 467          void PMC2_CMD_62(void)
 468          {
 469   1      }
 470          //----------------------------------------------------------------------------
 471          void PMC2_CMD_63(void)
 472          {
 473   1      }
 474          //----------------------------------------------------------------------------
 475          void PMC2_CMD_64(void)
 476          {
 477   1      }
 478          //----------------------------------------------------------------------------
 479          void PMC2_CMD_65(void)
 480          {
 481   1      }
 482          //----------------------------------------------------------------------------
 483          void PMC2_CMD_66(void)
 484          {
 485   1      }
 486          //----------------------------------------------------------------------------
 487          void PMC2_CMD_67(void)
 488          {
 489   1      }
C51 COMPILER V7.06   OEM_PMC2                                                              07/06/2010 09:59:50 PAGE 9   

 490          //----------------------------------------------------------------------------
 491          void PMC2_CMD_68(void)
 492          {
 493   1      }
 494          //----------------------------------------------------------------------------
 495          void PMC2_CMD_69(void)
 496          {
 497   1      }
 498          //----------------------------------------------------------------------------
 499          void PMC2_CMD_6A(void)
 500          {
 501   1      }
 502          //----------------------------------------------------------------------------
 503          void PMC2_CMD_6B(void)
 504          {
 505   1      }
 506          //----------------------------------------------------------------------------
 507          void PMC2_CMD_6C(void)
 508          {
 509   1      }
 510          //----------------------------------------------------------------------------
 511          void PMC2_CMD_6D(void)
 512          {
 513   1      }
 514          //----------------------------------------------------------------------------
 515          void PMC2_CMD_6E(void)
 516          {
 517   1      }
 518          //----------------------------------------------------------------------------
 519          void PMC2_CMD_6F(void)
 520          {
 521   1      }
 522          //----------------------------------------------------------------------------
 523          #endif
 524          //****************************************************************************
 525          #if  SUPPORTED_PMC2_7X
 526          //----------------------------------------------------------------------------
 527          void PMC2_CMD_70(void)
 528          {
 529   1      }
 530          //----------------------------------------------------------------------------
 531          void PMC2_CMD_71(void)
 532          {
 533   1      }
 534          //----------------------------------------------------------------------------
 535          void PMC2_CMD_72(void)
 536          {
 537   1      }
 538          //----------------------------------------------------------------------------
 539          void PMC2_CMD_73(void)
 540          {
 541   1      }
 542          //----------------------------------------------------------------------------
 543          void PMC2_CMD_74(void)
 544          {
 545   1      }
 546          //----------------------------------------------------------------------------
 547          void PMC2_CMD_75(void)
 548          {
 549   1      }
 550          //----------------------------------------------------------------------------
 551          void PMC2_CMD_76(void)
C51 COMPILER V7.06   OEM_PMC2                                                              07/06/2010 09:59:50 PAGE 10  

 552          {
 553   1      }
 554          //----------------------------------------------------------------------------
 555          void PMC2_CMD_77(void)
 556          {
 557   1      }
 558          //----------------------------------------------------------------------------
 559          void PMC2_CMD_78(void)
 560          {
 561   1      }
 562          //----------------------------------------------------------------------------
 563          void PMC2_CMD_79(void)
 564          {
 565   1      }
 566          //----------------------------------------------------------------------------
 567          void PMC2_CMD_7A(void)
 568          {
 569   1      }
 570          //----------------------------------------------------------------------------
 571          void PMC2_CMD_7B(void)
 572          {
 573   1      }
 574          //----------------------------------------------------------------------------
 575          void PMC2_CMD_7C(void)
 576          {
 577   1      }
 578          //----------------------------------------------------------------------------
 579          void PMC2_CMD_7D(void)
 580          {
 581   1      }
 582          //----------------------------------------------------------------------------
 583          void PMC2_CMD_7E(void)
 584          {
 585   1      }
 586          //----------------------------------------------------------------------------
 587          void PMC2_CMD_7F(void)
 588          {
 589   1      }
 590          //----------------------------------------------------------------------------
 591          #endif
 592          //****************************************************************************
 593          #if  SUPPORTED_PMC2_8X
 594          //----------------------------------------------------------------------------
 595          void PMC2_CMD_80(void)
 596          {
 597   1      }
 598          //----------------------------------------------------------------------------
 599          void PMC2_CMD_81(void)
 600          {
 601   1      }
 602          //----------------------------------------------------------------------------
 603          void PMC2_CMD_82(void)
 604          {
 605   1      }
 606          //----------------------------------------------------------------------------
 607          void PMC2_CMD_83(void)
 608          {
 609   1      }
 610          //----------------------------------------------------------------------------
 611          void PMC2_CMD_84(void)
 612          {
 613   1      }
C51 COMPILER V7.06   OEM_PMC2                                                              07/06/2010 09:59:50 PAGE 11  

 614          //----------------------------------------------------------------------------
 615          void PMC2_CMD_85(void)
 616          {
 617   1      }
 618          //----------------------------------------------------------------------------
 619          void PMC2_CMD_86(void)
 620          {
 621   1      }
 622          //----------------------------------------------------------------------------
 623          void PMC2_CMD_87(void)
 624          {
 625   1      }
 626          //----------------------------------------------------------------------------
 627          void PMC2_CMD_89(void)
 628          {
 629   1      }
 630          //----------------------------------------------------------------------------
 631          void PMC2_CMD_88(void)
 632          {
 633   1      }
 634          //----------------------------------------------------------------------------
 635          void PMC2_CMD_8A(void)
 636          {
 637   1      }
 638          //----------------------------------------------------------------------------
 639          void PMC2_CMD_8B(void)
 640          {
 641   1      }
 642          //----------------------------------------------------------------------------
 643          void PMC2_CMD_8C(void)
 644          {
 645   1      }
 646          //----------------------------------------------------------------------------
 647          void PMC2_CMD_8D(void)
 648          {
 649   1      }
 650          //----------------------------------------------------------------------------
 651          void PMC2_CMD_8E(void)
 652          {
 653   1      }
 654          //----------------------------------------------------------------------------
 655          void PMC2_CMD_8F(void)
 656          {
 657   1      }
 658          //----------------------------------------------------------------------------
 659          #endif
 660          //****************************************************************************
 661          #if  SUPPORTED_PMC2_9X
 662          //----------------------------------------------------------------------------
 663          void PMC2_CMD_90(void)
 664          {
 665   1      }
 666          //----------------------------------------------------------------------------
 667          void PMC2_CMD_91(void)
 668          {
 669   1      }
 670          //----------------------------------------------------------------------------
 671          void PMC2_CMD_92(void)
 672          {
 673   1      }
 674          //----------------------------------------------------------------------------
 675          void PMC2_CMD_93(void)
C51 COMPILER V7.06   OEM_PMC2                                                              07/06/2010 09:59:50 PAGE 12  

 676          {
 677   1      }
 678          //----------------------------------------------------------------------------
 679          void PMC2_CMD_94(void)
 680          {
 681   1      }
 682          //----------------------------------------------------------------------------
 683          void PMC2_CMD_95(void)
 684          {
 685   1      }
 686          //----------------------------------------------------------------------------
 687          void PMC2_CMD_96(void)
 688          {
 689   1      }
 690          //----------------------------------------------------------------------------
 691          void PMC2_CMD_97(void)
 692          {
 693   1      }
 694          //----------------------------------------------------------------------------
 695          void PMC2_CMD_98(void)
 696          {
 697   1      }
 698          //----------------------------------------------------------------------------
 699          void PMC2_CMD_99(void)
 700          {
 701   1      }
 702          //----------------------------------------------------------------------------
 703          void PMC2_CMD_9A(void)
 704          {
 705   1      }
 706          //----------------------------------------------------------------------------
 707          void PMC2_CMD_9B(void)
 708          {
 709   1      }
 710          //----------------------------------------------------------------------------
 711          void PMC2_CMD_9C(void)
 712          {
 713   1      }
 714          //----------------------------------------------------------------------------
 715          void PMC2_CMD_9D(void)
 716          {
 717   1      }
 718          //----------------------------------------------------------------------------
 719          void PMC2_CMD_9E(void)
 720          {
 721   1      }
 722          //----------------------------------------------------------------------------
 723          void PMC2_CMD_9F(void)
 724          {
 725   1      }
 726          //----------------------------------------------------------------------------
 727          #endif
 728          //****************************************************************************
 729          #if  SUPPORTED_PMC2_AX
 730          //----------------------------------------------------------------------------
 731          void PMC2_CMD_A0(void)
 732          {
 733   1      }
 734          //----------------------------------------------------------------------------
 735          void PMC2_CMD_A1(void)
 736          {
 737   1      }
C51 COMPILER V7.06   OEM_PMC2                                                              07/06/2010 09:59:50 PAGE 13  

 738          //----------------------------------------------------------------------------
 739          void PMC2_CMD_A2(void)
 740          {
 741   1      }
 742          //----------------------------------------------------------------------------
 743          void PMC2_CMD_A3(void)
 744          {
 745   1      }
 746          //----------------------------------------------------------------------------
 747          void PMC2_CMD_A4(void)
 748          {
 749   1      }
 750          //----------------------------------------------------------------------------
 751          void PMC2_CMD_A5(void)
 752          {
 753   1      }
 754          //----------------------------------------------------------------------------
 755          void PMC2_CMD_A6(void)
 756          {
 757   1      }
 758          //----------------------------------------------------------------------------
 759          void PMC2_CMD_A7(void)
 760          {
 761   1      }
 762          //----------------------------------------------------------------------------
 763          void PMC2_CMD_A8(void)
 764          {
 765   1      }
 766          //----------------------------------------------------------------------------
 767          void PMC2_CMD_A9(void)
 768          {
 769   1      }
 770          //----------------------------------------------------------------------------
 771          void PMC2_CMD_AA(void)
 772          {
 773   1      }
 774          //----------------------------------------------------------------------------
 775          void PMC2_CMD_AB(void)
 776          {
 777   1      }
 778          //----------------------------------------------------------------------------
 779          void PMC2_CMD_AC(void)
 780          {
 781   1      }
 782          //----------------------------------------------------------------------------
 783          void PMC2_CMD_AD(void)
 784          {
 785   1      }
 786          //----------------------------------------------------------------------------
 787          void PMC2_CMD_AE(void)
 788          {
 789   1      }
 790          //----------------------------------------------------------------------------
 791          void PMC2_CMD_AF(void)
 792          {
 793   1      }
 794          //----------------------------------------------------------------------------
 795          #endif
 796          //****************************************************************************
 797          #if  SUPPORTED_PMC2_BX
 798          //----------------------------------------------------------------------------
 799          void PMC2_CMD_B0(void)
C51 COMPILER V7.06   OEM_PMC2                                                              07/06/2010 09:59:50 PAGE 14  

 800          {
 801   1      }
 802          //----------------------------------------------------------------------------
 803          void PMC2_CMD_B1(void)
 804          {
 805   1      }
 806          //----------------------------------------------------------------------------
 807          void PMC2_CMD_B2(void)
 808          {
 809   1      }
 810          //----------------------------------------------------------------------------
 811          void PMC2_CMD_B3(void)
 812          {
 813   1      }
 814          //----------------------------------------------------------------------------
 815          void PMC2_CMD_B4(void)
 816          {
 817   1      }
 818          //----------------------------------------------------------------------------
 819          void PMC2_CMD_B5(void)
 820          {
 821   1      }
 822          //----------------------------------------------------------------------------
 823          void PMC2_CMD_B6(void)
 824          {
 825   1      }
 826          //----------------------------------------------------------------------------
 827          void PMC2_CMD_B7(void)
 828          {
 829   1      }
 830          //----------------------------------------------------------------------------
 831          void PMC2_CMD_B8(void)
 832          {
 833   1      }
 834          //----------------------------------------------------------------------------
 835          void PMC2_CMD_B9(void)
 836          {
 837   1      }
 838          //----------------------------------------------------------------------------
 839          void PMC2_CMD_BA(void)
 840          {
 841   1      }
 842          //----------------------------------------------------------------------------
 843          void PMC2_CMD_BB(void)
 844          {
 845   1      }
 846          //----------------------------------------------------------------------------
 847          void PMC2_CMD_BC(void)
 848          {
 849   1      }
 850          //----------------------------------------------------------------------------
 851          void PMC2_CMD_BD(void)
 852          {
 853   1      }
 854          //----------------------------------------------------------------------------
 855          void PMC2_CMD_BE(void)
 856          {
 857   1      }
 858          //----------------------------------------------------------------------------
 859          void PMC2_CMD_BF(void)
 860          {
 861   1      }
C51 COMPILER V7.06   OEM_PMC2                                                              07/06/2010 09:59:50 PAGE 15  

 862          //----------------------------------------------------------------------------
 863          #endif
 864          //****************************************************************************
 865          #if  SUPPORTED_PMC2_CX
 866          //----------------------------------------------------------------------------
 867          void PMC2_CMD_C0(void)
 868          {
 869   1      }
 870          //----------------------------------------------------------------------------
 871          void PMC2_CMD_C1(void)
 872          {
 873   1      }
 874          //----------------------------------------------------------------------------
 875          void PMC2_CMD_C2(void)
 876          {
 877   1      }
 878          //----------------------------------------------------------------------------
 879          void PMC2_CMD_C3(void)
 880          {
 881   1      }
 882          //----------------------------------------------------------------------------
 883          void PMC2_CMD_C4(void)
 884          {
 885   1      }
 886          //----------------------------------------------------------------------------
 887          void PMC2_CMD_C5(void)
 888          {
 889   1      }
 890          //----------------------------------------------------------------------------
 891          void PMC2_CMD_C6(void)
 892          {
 893   1      }
 894          //----------------------------------------------------------------------------
 895          void PMC2_CMD_C7(void)
 896          {
 897   1      }
 898          //----------------------------------------------------------------------------
 899          void PMC2_CMD_C8(void)
 900          {
 901   1      }
 902          //----------------------------------------------------------------------------
 903          void PMC2_CMD_C9(void)
 904          {
 905   1      }
 906          //----------------------------------------------------------------------------
 907          void PMC2_CMD_CA(void)
 908          {
 909   1      }
 910          //----------------------------------------------------------------------------
 911          void PMC2_CMD_CB(void)
 912          {
 913   1      }
 914          //----------------------------------------------------------------------------
 915          void PMC2_CMD_CC(void)
 916          {
 917   1      }
 918          //----------------------------------------------------------------------------
 919          void PMC2_CMD_CD(void)
 920          {
 921   1      }
 922          //----------------------------------------------------------------------------
 923          void PMC2_CMD_CE(void)
C51 COMPILER V7.06   OEM_PMC2                                                              07/06/2010 09:59:50 PAGE 16  

 924          {
 925   1      }
 926          //----------------------------------------------------------------------------
 927          void PMC2_CMD_CF(void)
 928          {
 929   1      }
 930          //----------------------------------------------------------------------------
 931          #endif
 932          //****************************************************************************
 933          #if  SUPPORTED_PMC2_DX
 934          //----------------------------------------------------------------------------
 935          void PMC2_CMD_D0(void)
 936          {
 937   1      }
 938          //----------------------------------------------------------------------------
 939          void PMC2_CMD_D1(void)
 940          {
 941   1      }
 942          //----------------------------------------------------------------------------
 943          void PMC2_CMD_D2(void)
 944          {
 945   1      }
 946          //----------------------------------------------------------------------------
 947          void PMC2_CMD_D3(void)
 948          {
 949   1      }
 950          //----------------------------------------------------------------------------
 951          void PMC2_CMD_D4(void)
 952          {
 953   1      }
 954          //----------------------------------------------------------------------------
 955          void PMC2_CMD_D5(void)
 956          {
 957   1      }
 958          //----------------------------------------------------------------------------
 959          void PMC2_CMD_D6(void)
 960          {
 961   1      }
 962          //----------------------------------------------------------------------------
 963          void PMC2_CMD_D7(void)
 964          {
 965   1      }
 966          //----------------------------------------------------------------------------
 967          void PMC2_CMD_D8(void)
 968          {
 969   1      }
 970          //----------------------------------------------------------------------------
 971          void PMC2_CMD_D9(void)
 972          {
 973   1      }
 974          //----------------------------------------------------------------------------
 975          void PMC2_CMD_DA(void)
 976          {
 977   1      }
 978          //----------------------------------------------------------------------------
 979          void PMC2_CMD_DB(void)
 980          {
 981   1      }
 982          //----------------------------------------------------------------------------
 983          void PMC2_CMD_DC(void)
 984          {
 985   1      }
C51 COMPILER V7.06   OEM_PMC2                                                              07/06/2010 09:59:50 PAGE 17  

 986          //----------------------------------------------------------------------------
 987          void PMC2_CMD_DD(void)
 988          {
 989   1      }
 990          //----------------------------------------------------------------------------
 991          void PMC2_CMD_DE(void)
 992          {
 993   1      }
 994          //----------------------------------------------------------------------------
 995          void PMC2_CMD_DF(void)
 996          {
 997   1      }
 998          //----------------------------------------------------------------------------
 999          #endif
1000          //****************************************************************************
1001          #if  SUPPORTED_PMC2_EX
1002          //----------------------------------------------------------------------------
1003          void PMC2_CMD_E0(void)
1004          {
1005   1      }
1006          //----------------------------------------------------------------------------
1007          void PMC2_CMD_E1(void)
1008          {
1009   1      }
1010          //----------------------------------------------------------------------------
1011          void PMC2_CMD_E2(void)
1012          {
1013   1      }
1014          //----------------------------------------------------------------------------
1015          void PMC2_CMD_E3(void)
1016          {
1017   1      }
1018          //----------------------------------------------------------------------------
1019          void PMC2_CMD_E4(void)
1020          {
1021   1      }
1022          //----------------------------------------------------------------------------
1023          void PMC2_CMD_E5(void)
1024          {
1025   1      }
1026          //----------------------------------------------------------------------------
1027          void PMC2_CMD_E6(void)
1028          {
1029   1      }
1030          //----------------------------------------------------------------------------
1031          void PMC2_CMD_E7(void)
1032          {
1033   1      }
1034          //----------------------------------------------------------------------------
1035          void PMC2_CMD_E8(void)
1036          {
1037   1      }
1038          //----------------------------------------------------------------------------
1039          void PMC2_CMD_E9(void)
1040          {
1041   1      }
1042          //----------------------------------------------------------------------------
1043          void PMC2_CMD_EA(void)
1044          {
1045   1      }
1046          //----------------------------------------------------------------------------
1047          void PMC2_CMD_EB(void)
C51 COMPILER V7.06   OEM_PMC2                                                              07/06/2010 09:59:50 PAGE 18  

1048          {
1049   1      }
1050          //----------------------------------------------------------------------------
1051          void PMC2_CMD_EC(void)
1052          {
1053   1      }
1054          //----------------------------------------------------------------------------
1055          void PMC2_CMD_ED(void)
1056          {
1057   1      }
1058          //----------------------------------------------------------------------------
1059          void PMC2_CMD_EE(void)
1060          {
1061   1      }
1062          //----------------------------------------------------------------------------
1063          void PMC2_CMD_EF(void)
1064          {
1065   1      }
1066          //----------------------------------------------------------------------------
1067          #endif
1068          //****************************************************************************
1069          #if  SUPPORTED_PMC2_FX
1070          //----------------------------------------------------------------------------
1071          void PMC2_CMD_F0(void)
1072          {
1073   1      }
1074          //----------------------------------------------------------------------------
1075          void PMC2_CMD_F1(void)
1076          {
1077   1      }
1078          //----------------------------------------------------------------------------
1079          void PMC2_CMD_F2(void)
1080          {
1081   1      }
1082          //----------------------------------------------------------------------------
1083          void PMC2_CMD_F3(void)
1084          {
1085   1      }
1086          //----------------------------------------------------------------------------
1087          void PMC2_CMD_F4(void)
1088          {
1089   1      }
1090          //----------------------------------------------------------------------------
1091          void PMC2_CMD_F5(void)
1092          {
1093   1      }
1094          //----------------------------------------------------------------------------
1095          void PMC2_CMD_F6(void)
1096          {
1097   1      }
1098          //----------------------------------------------------------------------------
1099          void PMC2_CMD_F7(void)
1100          {
1101   1      }
1102          //----------------------------------------------------------------------------
1103          void PMC2_CMD_F8(void)
1104          {
1105   1      }
1106          //----------------------------------------------------------------------------
1107          void PMC2_CMD_F9(void)
1108          {
1109   1      }
C51 COMPILER V7.06   OEM_PMC2                                                              07/06/2010 09:59:50 PAGE 19  

1110          //----------------------------------------------------------------------------
1111          void PMC2_CMD_FA(void)
1112          {
1113   1      }
1114          //----------------------------------------------------------------------------
1115          void PMC2_CMD_FB(void)
1116          {
1117   1      }
1118          //----------------------------------------------------------------------------
1119          void PMC2_CMD_FC(void)
1120          {
1121   1      }
1122          //----------------------------------------------------------------------------
1123          void PMC2_CMD_FD(void)
1124          {
1125   1      }
1126          //----------------------------------------------------------------------------
1127          void PMC2_CMD_FE(void)
1128          {
1129   1      }
1130          //----------------------------------------------------------------------------
1131          void PMC2_CMD_FF(void)
1132          {
1133   1      }
1134          #endif
1135          //****************************************************************************
1136          #if  SUPPORTED_PMC2_0X
1137          //----------------------------------------------------------------------------
1138          const FUNCT_PTR_V_V code PMC2Cmd0X_Table[16] =
1139          {
1140              PMC2_CMD_00,                  // Process PMC2 command 00
1141              PMC2_CMD_01,                  // Process PMC2 command 01
1142              PMC2_CMD_02,                  // Process PMC2 command 02
1143              PMC2_CMD_03,                  // Process PMC2 command 03
1144              PMC2_CMD_04,                  // Process PMC2 command 04
1145              PMC2_CMD_05,                  // Process PMC2 command 05
1146              PMC2_CMD_06,                  // Process PMC2 command 06
1147              PMC2_CMD_07,                  // Process PMC2 command 07
1148              PMC2_CMD_08,                  // Process PMC2 command 08
1149              PMC2_CMD_09,                  // Process PMC2 command 09
1150              PMC2_CMD_0A,                  // Process PMC2 command 0A
1151              PMC2_CMD_0B,                  // Process PMC2 command 0B
1152              PMC2_CMD_0C,                  // Process PMC2 command 0C
1153              PMC2_CMD_0D,                  // Process PMC2 command 0D
1154              PMC2_CMD_0E,                  // Process PMC2 command 0E
1155              PMC2_CMD_0F,                  // Process PMC2 command 0F
1156          };
1157          #endif
1158          #if  SUPPORTED_PMC2_1X
1159          //----------------------------------------------------------------------------
1160          const FUNCT_PTR_V_V code PMC2Cmd1X_Table[16] =
1161          {
1162              PMC2_CMD_10,                  // Process PMC2 command 10
1163              PMC2_CMD_11,                  // Process PMC2 command 11
1164              PMC2_CMD_12,                  // Process PMC2 command 12
1165              PMC2_CMD_13,                  // Process PMC2 command 13
1166              PMC2_CMD_14,                  // Process PMC2 command 14
1167              PMC2_CMD_15,                  // Process PMC2 command 15
1168              PMC2_CMD_16,                  // Process PMC2 command 16
1169              PMC2_CMD_17,                  // Process PMC2 command 17
1170              PMC2_CMD_18,                  // Process PMC2 command 18
1171              PMC2_CMD_19,                  // Process PMC2 command 19
C51 COMPILER V7.06   OEM_PMC2                                                              07/06/2010 09:59:50 PAGE 20  

1172              PMC2_CMD_1A,                  // Process PMC2 command 1A
1173              PMC2_CMD_1B,                  // Process PMC2 command 1B
1174              PMC2_CMD_1C,                  // Process PMC2 command 1C
1175              PMC2_CMD_1D,                  // Process PMC2 command 1D
1176              PMC2_CMD_1E,                  // Process PMC2 command 1E
1177              PMC2_CMD_1F,                  // Process PMC2 command 1F
1178          };
1179          #endif
1180          #if  SUPPORTED_PMC2_2X
1181          //----------------------------------------------------------------------------
1182          const FUNCT_PTR_V_V code PMC2Cmd2X_Table[16] =
1183          {
1184              PMC2_CMD_20,                  // Process PMC2 command 20
1185              PMC2_CMD_21,                  // Process PMC2 command 21
1186              PMC2_CMD_22,                  // Process PMC2 command 22
1187              PMC2_CMD_23,                  // Process PMC2 command 23
1188              PMC2_CMD_24,                  // Process PMC2 command 24
1189              PMC2_CMD_25,                  // Process PMC2 command 25
1190              PMC2_CMD_26,                  // Process PMC2 command 26
1191              PMC2_CMD_27,                  // Process PMC2 command 27
1192              PMC2_CMD_28,                  // Process PMC2 command 28
1193              PMC2_CMD_29,                  // Process PMC2 command 29
1194              PMC2_CMD_2A,                  // Process PMC2 command 2A
1195              PMC2_CMD_2B,                  // Process PMC2 command 2B
1196              PMC2_CMD_2C,                  // Process PMC2 command 2C
1197              PMC2_CMD_2D,                  // Process PMC2 command 2D
1198              PMC2_CMD_2E,                  // Process PMC2 command 2E
1199              PMC2_CMD_2F,                  // Process PMC2 command 2F
1200          };
1201          #endif
1202          #if  SUPPORTED_PMC2_3X
1203          //----------------------------------------------------------------------------
1204          const FUNCT_PTR_V_V code PMC2Cmd3X_Table[16] =
1205          {
1206              PMC2_CMD_30,                  // Process PMC2 command 30
1207              PMC2_CMD_31,                  // Process PMC2 command 31
1208              PMC2_CMD_32,                  // Process PMC2 command 32
1209              PMC2_CMD_33,                  // Process PMC2 command 33
1210              PMC2_CMD_34,                  // Process PMC2 command 34
1211              PMC2_CMD_35,                  // Process PMC2 command 35
1212              PMC2_CMD_36,                  // Process PMC2 command 36
1213              PMC2_CMD_37,                  // Process PMC2 command 37
1214              PMC2_CMD_38,                  // Process PMC2 command 38
1215              PMC2_CMD_39,                  // Process PMC2 command 39
1216              PMC2_CMD_3A,                  // Process PMC2 command 3A
1217              PMC2_CMD_3B,                  // Process PMC2 command 3B
1218              PMC2_CMD_3C,                  // Process PMC2 command 3C
1219              PMC2_CMD_3D,                  // Process PMC2 command 3D
1220              PMC2_CMD_3E,                  // Process PMC2 command 3E
1221              PMC2_CMD_3F,                  // Process PMC2 command 3F
1222          };
1223          #endif
1224          #if  SUPPORTED_PMC2_4X
1225          //----------------------------------------------------------------------------
1226          const FUNCT_PTR_V_V code PMC2Cmd4X_Table[16] =
1227          {
1228              PMC2_CMD_40,                  // Process PMC2 command 40
1229              PMC2_CMD_41,                  // Process PMC2 command 41
1230              PMC2_CMD_42,                  // Process PMC2 command 42
1231              PMC2_CMD_43,                  // Process PMC2 command 43
1232              PMC2_CMD_44,                  // Process PMC2 command 44
1233              PMC2_CMD_45,                  // Process PMC2 command 45
C51 COMPILER V7.06   OEM_PMC2                                                              07/06/2010 09:59:50 PAGE 21  

1234              PMC2_CMD_46,                  // Process PMC2 command 46
1235              PMC2_CMD_47,                  // Process PMC2 command 47
1236              PMC2_CMD_48,                  // Process PMC2 command 48
1237              PMC2_CMD_49,                  // Process PMC2 command 49
1238              PMC2_CMD_4A,                  // Process PMC2 command 4A
1239              PMC2_CMD_4B,                  // Process PMC2 command 4B
1240              PMC2_CMD_4C,                  // Process PMC2 command 4C
1241              PMC2_CMD_4D,                  // Process PMC2 command 4D
1242              PMC2_CMD_4E,                  // Process PMC2 command 4E
1243              PMC2_CMD_4F,                  // Process PMC2 command 4F
1244          };
1245          #endif
1246          #if  SUPPORTED_PMC2_5X
1247          //----------------------------------------------------------------------------
1248          const FUNCT_PTR_V_V code PMC2Cmd5X_Table[16] =
1249          {
1250              PMC2_CMD_50,                  // Process PMC2 command 50
1251              PMC2_CMD_51,                  // Process PMC2 command 51
1252              PMC2_CMD_52,                  // Process PMC2 command 52
1253              PMC2_CMD_53,                  // Process PMC2 command 53
1254              PMC2_CMD_54,                  // Process PMC2 command 54
1255              PMC2_CMD_55,                  // Process PMC2 command 55
1256              PMC2_CMD_56,                  // Process PMC2 command 56
1257              PMC2_CMD_57,                  // Process PMC2 command 57
1258              PMC2_CMD_58,                  // Process PMC2 command 58
1259              PMC2_CMD_59,                  // Process PMC2 command 59
1260              PMC2_CMD_5A,                  // Process PMC2 command 5A
1261              PMC2_CMD_5B,                  // Process PMC2 command 5B
1262              PMC2_CMD_5C,                  // Process PMC2 command 5C
1263              PMC2_CMD_5D,                  // Process PMC2 command 5D
1264              PMC2_CMD_5E,                  // Process PMC2 command 5E
1265              PMC2_CMD_5F,                  // Process PMC2 command 5F
1266          };
1267          #endif
1268          #if  SUPPORTED_PMC2_6X
1269          //----------------------------------------------------------------------------
1270          const FUNCT_PTR_V_V code PMC2Cmd6X_Table[16] =
1271          {
1272              PMC2_CMD_60,                  // Process PMC2 command 60
1273              PMC2_CMD_61,                  // Process PMC2 command 61
1274              PMC2_CMD_62,                  // Process PMC2 command 62
1275              PMC2_CMD_63,                  // Process PMC2 command 63
1276              PMC2_CMD_64,                  // Process PMC2 command 64
1277              PMC2_CMD_65,                  // Process PMC2 command 65
1278              PMC2_CMD_66,                  // Process PMC2 command 66
1279              PMC2_CMD_67,                  // Process PMC2 command 67
1280              PMC2_CMD_68,                  // Process PMC2 command 68
1281              PMC2_CMD_69,                  // Process PMC2 command 69
1282              PMC2_CMD_6A,                  // Process PMC2 command 6A
1283              PMC2_CMD_6B,                  // Process PMC2 command 6B
1284              PMC2_CMD_6C,                  // Process PMC2 command 6C
1285              PMC2_CMD_6D,                  // Process PMC2 command 6D
1286              PMC2_CMD_6E,                  // Process PMC2 command 6E
1287              PMC2_CMD_6F,                  // Process PMC2 command 6F
1288          };
1289          #endif
1290          #if  SUPPORTED_PMC2_7X
1291          //----------------------------------------------------------------------------
1292          const FUNCT_PTR_V_V code PMC2Cmd7X_Table[16] =
1293          {
1294              PMC2_CMD_70,                  // Process PMC2 command 70
1295              PMC2_CMD_71,                  // Process PMC2 command 71
C51 COMPILER V7.06   OEM_PMC2                                                              07/06/2010 09:59:50 PAGE 22  

1296              PMC2_CMD_72,                  // Process PMC2 command 72
1297              PMC2_CMD_73,                  // Process PMC2 command 73
1298              PMC2_CMD_74,                  // Process PMC2 command 74
1299              PMC2_CMD_75,                  // Process PMC2 command 75
1300              PMC2_CMD_76,                  // Process PMC2 command 76
1301              PMC2_CMD_77,                  // Process PMC2 command 78
1302              PMC2_CMD_78,                  // Process PMC2 command 79
1303              PMC2_CMD_79,                  // Process PMC2 command 79
1304              PMC2_CMD_7A,                  // Process PMC2 command 7A
1305              PMC2_CMD_7B,                  // Process PMC2 command 7B
1306              PMC2_CMD_7C,                  // Process PMC2 command 7C
1307              PMC2_CMD_7D,                  // Process PMC2 command 7D
1308              PMC2_CMD_7E,                  // Process PMC2 command 7E
1309              PMC2_CMD_7F,                  // Process PMC2 command 7F
1310          };
1311          #endif
1312          #if  SUPPORTED_PMC2_8X
1313          //----------------------------------------------------------------------------
1314          const FUNCT_PTR_V_V code PMC2Cmd8X_Table[16] =
1315          {
1316              PMC2_CMD_80,                  // Process PMC2 command 80
1317              PMC2_CMD_81,                  // Process PMC2 command 81
1318              PMC2_CMD_82,                  // Process PMC2 command 82
1319              PMC2_CMD_83,                  // Process PMC2 command 83
1320              PMC2_CMD_84,                  // Process PMC2 command 84
1321              PMC2_CMD_85,                  // Process PMC2 command 85
1322              PMC2_CMD_86,                  // Process PMC2 command 86
1323              PMC2_CMD_87,                  // Process PMC2 command 87
1324              PMC2_CMD_89,                  // Process PMC2 command 89
1325              PMC2_CMD_88,                  // Process PMC2 command 88
1326              PMC2_CMD_8A,                  // Process PMC2 command 8A
1327              PMC2_CMD_8B,                  // Process PMC2 command 8B
1328              PMC2_CMD_8C,                  // Process PMC2 command 8C
1329              PMC2_CMD_8D,                  // Process PMC2 command 8D
1330              PMC2_CMD_8E,                  // Process PMC2 command 8E
1331              PMC2_CMD_8F,                  // Process PMC2 command 8F
1332          };
1333          #endif
1334          #if  SUPPORTED_PMC2_9X
1335          //----------------------------------------------------------------------------
1336          const FUNCT_PTR_V_V code PMC2Cmd9X_Table[16] =
1337          {
1338              PMC2_CMD_90,                  // Process PMC2 command 90
1339              PMC2_CMD_91,                  // Process PMC2 command 91
1340              PMC2_CMD_92,                  // Process PMC2 command 92
1341              PMC2_CMD_93,                  // Process PMC2 command 93
1342              PMC2_CMD_94,                  // Process PMC2 command 94
1343              PMC2_CMD_95,                  // Process PMC2 command 95
1344              PMC2_CMD_96,                  // Process PMC2 command 96
1345              PMC2_CMD_97,                  // Process PMC2 command 97
1346              PMC2_CMD_98,                  // Process PMC2 command 98
1347              PMC2_CMD_99,                  // Process PMC2 command 99
1348              PMC2_CMD_9A,                  // Process PMC2 command 9A
1349              PMC2_CMD_9B,                  // Process PMC2 command 9B
1350              PMC2_CMD_9C,                  // Process PMC2 command 9C
1351              PMC2_CMD_9D,                  // Process PMC2 command 9D
1352              PMC2_CMD_9E,                  // Process PMC2 command 9E
1353              PMC2_CMD_9F,                  // Process PMC2 command 9F
1354          };
1355          #endif
1356          #if  SUPPORTED_PMC2_AX
1357          //----------------------------------------------------------------------------
C51 COMPILER V7.06   OEM_PMC2                                                              07/06/2010 09:59:50 PAGE 23  

1358          const FUNCT_PTR_V_V code PMC2CmdAX_Table[16] =
1359          {
1360              PMC2_CMD_A0,                  // Process PMC2 command A0
1361              PMC2_CMD_A1,                  // Process PMC2 command A1
1362              PMC2_CMD_A2,                  // Process PMC2 command A2
1363              PMC2_CMD_A3,                  // Process PMC2 command A3
1364              PMC2_CMD_A4,                  // Process PMC2 command A4
1365              PMC2_CMD_A5,                  // Process PMC2 command A5
1366              PMC2_CMD_A6,                  // Process PMC2 command A6
1367              PMC2_CMD_A7,                  // Process PMC2 command A7
1368              PMC2_CMD_A8,                  // Process PMC2 command A8
1369              PMC2_CMD_A9,                  // Process PMC2 command A9
1370              PMC2_CMD_AA,                  // Process PMC2 command AA
1371              PMC2_CMD_AB,                  // Process PMC2 command AB
1372              PMC2_CMD_AC,                  // Process PMC2 command AC
1373              PMC2_CMD_AD,                  // Process PMC2 command AD
1374              PMC2_CMD_AE,                  // Process PMC2 command AE
1375              PMC2_CMD_AF,                  // Process PMC2 command AF
1376          };
1377          #endif
1378          #if  SUPPORTED_PMC2_BX
1379          //----------------------------------------------------------------------------
1380          const FUNCT_PTR_V_V code PMC2CmdBX_Table[16] =
1381          {
1382              PMC2_CMD_B0,                  // Process PMC2 command B0
1383              PMC2_CMD_B1,                  // Process PMC2 command B1
1384              PMC2_CMD_B2,                  // Process PMC2 command B2
1385              PMC2_CMD_B3,                  // Process PMC2 command B3
1386              PMC2_CMD_B4,                  // Process PMC2 command B4
1387              PMC2_CMD_B5,                  // Process PMC2 command B5
1388              PMC2_CMD_B6,                  // Process PMC2 command B6
1389              PMC2_CMD_B7,                  // Process PMC2 command B7
1390              PMC2_CMD_B8,                  // Process PMC2 command B8
1391              PMC2_CMD_B9,                  // Process PMC2 command B9
1392              PMC2_CMD_BA,                  // Process PMC2 command BA
1393              PMC2_CMD_BB,                  // Process PMC2 command BB
1394              PMC2_CMD_BC,                  // Process PMC2 command BC
1395              PMC2_CMD_BD,                  // Process PMC2 command BD
1396              PMC2_CMD_BE,                  // Process PMC2 command BE
1397              PMC2_CMD_BF,                  // Process PMC2 command BF
1398          };
1399          #endif
1400          #if  SUPPORTED_PMC2_CX
1401          //----------------------------------------------------------------------------
1402          const FUNCT_PTR_V_V code PMC2CmdCX_Table[16] =
1403          {
1404              PMC2_CMD_C0,                  // Process PMC2 command C0
1405              PMC2_CMD_C1,                  // Process PMC2 command C1
1406              PMC2_CMD_C2,                  // Process PMC2 command C2
1407              PMC2_CMD_C3,                  // Process PMC2 command C3
1408              PMC2_CMD_C4,                  // Process PMC2 command C4
1409              PMC2_CMD_C5,                  // Process PMC2 command C5
1410              PMC2_CMD_C6,                  // Process PMC2 command C6
1411              PMC2_CMD_C7,                  // Process PMC2 command C7
1412              PMC2_CMD_C8,                  // Process PMC2 command C8
1413              PMC2_CMD_C9,                  // Process PMC2 command C9
1414              PMC2_CMD_CA,                  // Process PMC2 command CA
1415              PMC2_CMD_CB,                  // Process PMC2 command CB
1416              PMC2_CMD_CC,                  // Process PMC2 command CC
1417              PMC2_CMD_CD,                  // Process PMC2 command CD
1418              PMC2_CMD_CE,                  // Process PMC2 command CE
1419              PMC2_CMD_CF,                  // Process PMC2 command CF
C51 COMPILER V7.06   OEM_PMC2                                                              07/06/2010 09:59:50 PAGE 24  

1420          };
1421          #endif
1422          #if  SUPPORTED_PMC2_DX
1423          //----------------------------------------------------------------------------
1424          const FUNCT_PTR_V_V code PMC2CmdDX_Table[16] =
1425          {
1426              PMC2_CMD_D0,                  // Process PMC2 command D0
1427              PMC2_CMD_D1,                  // Process PMC2 command D1
1428              PMC2_CMD_D2,                  // Process PMC2 command D2
1429              PMC2_CMD_D3,                  // Process PMC2 command D3
1430              PMC2_CMD_D4,                  // Process PMC2 command D4
1431              PMC2_CMD_D5,                  // Process PMC2 command D5
1432              PMC2_CMD_D6,                  // Process PMC2 command D6
1433              PMC2_CMD_D7,                  // Process PMC2 command D7
1434              PMC2_CMD_D8,                  // Process PMC2 command D8
1435              PMC2_CMD_D9,                  // Process PMC2 command D9
1436              PMC2_CMD_DA,                  // Process PMC2 command DA
1437              PMC2_CMD_DB,                  // Process PMC2 command DB
1438              PMC2_CMD_DC,                  // Process PMC2 command DC
1439              PMC2_CMD_DD,                  // Process PMC2 command DD
1440              PMC2_CMD_DE,                  // Process PMC2 command DE
1441              PMC2_CMD_DF,                  // Process PMC2 command DF
1442          };
1443          #endif
1444          #if  SUPPORTED_PMC2_EX
1445          //----------------------------------------------------------------------------
1446          const FUNCT_PTR_V_V code PMC2CmdEX_Table[16] =
1447          {
1448              PMC2_CMD_E0,                  // Process PMC2 command E0
1449              PMC2_CMD_E1,                  // Process PMC2 command E1
1450              PMC2_CMD_E2,                  // Process PMC2 command E2
1451              PMC2_CMD_E3,                  // Process PMC2 command E3
1452              PMC2_CMD_E4,                  // Process PMC2 command E4
1453              PMC2_CMD_E5,                  // Process PMC2 command E5
1454              PMC2_CMD_E6,                  // Process PMC2 command E6
1455              PMC2_CMD_E7,                  // Process PMC2 command E7
1456              PMC2_CMD_E8,                  // Process PMC2 command E8
1457              PMC2_CMD_E9,                  // Process PMC2 command E9
1458              PMC2_CMD_EA,                  // Process PMC2 command EA
1459              PMC2_CMD_EB,                  // Process PMC2 command EB
1460              PMC2_CMD_EC,                  // Process PMC2 command EC
1461              PMC2_CMD_ED,                  // Process PMC2 command ED
1462              PMC2_CMD_EE,                  // Process PMC2 command EE
1463              PMC2_CMD_EF,                  // Process PMC2 command EF
1464          };
1465          #endif
1466          #if  SUPPORTED_PMC2_FX
1467          //----------------------------------------------------------------------------
1468          const FUNCT_PTR_V_V code PMC2CmdFX_Table[16] =
1469          {
1470              PMC2_CMD_F0,                  // Process PMC2 command F0
1471              PMC2_CMD_F1,                  // Process PMC2 command F1
1472              PMC2_CMD_F2,                  // Process PMC2 command F2
1473              PMC2_CMD_F3,                  // Process PMC2 command F3
1474              PMC2_CMD_F4,                  // Process PMC2 command F4
1475              PMC2_CMD_F5,                  // Process PMC2 command F5
1476              PMC2_CMD_F6,                  // Process PMC2 command F6
1477              PMC2_CMD_F7,                  // Process PMC2 command F7
1478              PMC2_CMD_F8,                  // Process PMC2 command F8
1479              PMC2_CMD_F9,                  // Process PMC2 command F9
1480              PMC2_CMD_FA,                  // Process PMC2 command FA
1481              PMC2_CMD_FB,                  // Process PMC2 command FB
C51 COMPILER V7.06   OEM_PMC2                                                              07/06/2010 09:59:50 PAGE 25  

1482              PMC2_CMD_FC,                  // Process PMC2 command FC
1483              PMC2_CMD_FD,                  // Process PMC2 command FD
1484              PMC2_CMD_FE,                  // Process PMC2 command FE
1485              PMC2_CMD_FF,                  // Process PMC2 command FF
1486          };
1487          #endif
1488          //----------------------------------------------------------------------------
1489          //----------------------------------------------------------------------------
1490          void PMC2_Cmd_0X(void)
1491          {
1492   1          #if  SUPPORTED_PMC2_0X
1493   1          (PMC2Cmd0X_Table[PM2Cmd&0x0F])();
1494   1          #endif
1495   1      }
1496          //----------------------------------------------------------------------------
1497          void PMC2_Cmd_1X(void)
1498          {
1499   1          #if  SUPPORTED_PMC2_1X
1500   1          (PMC2Cmd1X_Table[PM2Cmd&0x0F])();
1501   1          #endif
1502   1      }
1503          //----------------------------------------------------------------------------
1504          void PMC2_Cmd_2X(void)
1505          {
1506   1          #if  SUPPORTED_PMC2_2X
1507   1          (PMC2Cmd2X_Table[PM2Cmd&0x0F])();
1508   1          #endif
1509   1      }
1510          //----------------------------------------------------------------------------
1511          void PMC2_Cmd_3X(void)
1512          {
1513   1          #if  SUPPORTED_PMC2_3X
1514   1          (PMC2Cmd3X_Table[PM2Cmd&0x0F])();
1515   1          #endif
1516   1      }
1517          //----------------------------------------------------------------------------
1518          void PMC2_Cmd_4X(void)
1519          {
1520   1          #if  SUPPORTED_PMC2_4X
1521   1          (PMC2Cmd4X_Table[PM2Cmd&0x0F])();
1522   1          #endif
1523   1      }
1524          //----------------------------------------------------------------------------
1525          void PMC2_Cmd_5X(void)
1526          {
1527   1          #if  SUPPORTED_PMC2_5X
1528   1          (PMC2Cmd5X_Table[PM2Cmd&0x0F])();
1529   1          #endif
1530   1      }
1531          //----------------------------------------------------------------------------
1532          void PMC2_Cmd_6X(void)
1533          {
1534   1          #if  SUPPORTED_PMC2_6X
1535   1          (PMC2Cmd6X_Table[PM2Cmd&0x0F])();
1536   1          #endif
1537   1      }
1538          //----------------------------------------------------------------------------
1539          void PMC2_Cmd_7X(void)
1540          {
1541   1          #if  SUPPORTED_PMC2_7X
1542   1          (PMC2Cmd7X_Table[PM2Cmd&0x0F])();
1543   1          #endif
C51 COMPILER V7.06   OEM_PMC2                                                              07/06/2010 09:59:50 PAGE 26  

1544   1      }
1545          //----------------------------------------------------------------------------
1546          void PMC2_Cmd_8X(void)
1547          {
1548   1          #if  SUPPORTED_PMC2_8X
1549   1          (PMC2Cmd8X_Table[PM2Cmd&0x0F])();
1550   1          #endif
1551   1      }
1552          //----------------------------------------------------------------------------
1553          void PMC2_Cmd_9X(void)
1554          {
1555   1          #if  SUPPORTED_PMC2_8X
1556   1          (PMC2Cmd8X_Table[PM2Cmd&0x0F])();
1557   1          #endif
1558   1      }
1559          //----------------------------------------------------------------------------
1560          void PMC2_Cmd_AX(void)
1561          {
1562   1          #if  SUPPORTED_PMC2_AX
1563   1          (PMC2CmdAX_Table[PM2Cmd&0x0F])();
1564   1          #endif
1565   1      }
1566          //----------------------------------------------------------------------------
1567          void PMC2_Cmd_BX(void)
1568          {
1569   1          #if  SUPPORTED_PMC2_BX
1570   1          (PMC2CmdBX_Table[PM2Cmd&0x0F])();
1571   1          #endif
1572   1      }
1573          //----------------------------------------------------------------------------
1574          void PMC2_Cmd_CX(void)
1575          {
1576   1          #if  SUPPORTED_PMC2_CX
1577   1          (PMC2CmdCX_Table[PM2Cmd&0x0F])();
1578   1          #endif
1579   1      }
1580          //----------------------------------------------------------------------------
1581          void PMC2_Cmd_DX(void)
1582          {
1583   1          #if  SUPPORTED_PMC2_DX
1584   1          (PMC2CmdDX_Table[PM2Cmd&0x0F])();
1585   1          #endif
1586   1      }
1587          //----------------------------------------------------------------------------
1588          void PMC2_Cmd_EX(void)
1589          {
1590   1          #if  SUPPORTED_PMC2_EX
1591   1          (PMC2CmdEX_Table[PM2Cmd&0x0F])();
1592   1          #endif
1593   1      }
1594          //----------------------------------------------------------------------------
1595          void PMC2_Cmd_FX(void)
1596          {
1597   1          #if  SUPPORTED_PMC2_FX
1598   1          (PMC2CmdFX_Table[PM2Cmd&0x0F])();
1599   1          #endif
1600   1      }
1601          //----------------------------------------------------------------------------
1602          // Process Command/Data received from System via 68/6C interface
1603          //----------------------------------------------------------------------------
1604          const FUNCT_PTR_V_V code Port6C_Table[16] =
1605          {
C51 COMPILER V7.06   OEM_PMC2                                                              07/06/2010 09:59:50 PAGE 27  

1606              PMC2_Cmd_0X,                    // Process PMC2 command 0x
1607              PMC2_Cmd_1X,                    // Process PMC2 command 1x
1608              PMC2_Cmd_2X,                    // Process PMC2 command 2x
1609              PMC2_Cmd_3X,                    // Process PMC2 command 3x
1610              PMC2_Cmd_4X,                    // Process PMC2 command 4x
1611              PMC2_Cmd_5X,                    // Process PMC2 command 5x
1612              PMC2_Cmd_6X,                    // Process PMC2 command 6x
1613              PMC2_Cmd_7X,                    // Process PMC2 command 7x
1614              PMC2_Cmd_8X,                    // Process PMC2 command 8x
1615              PMC2_Cmd_9X,                    // Process PMC2 command 9x
1616              PMC2_Cmd_AX,                    // Process PMC2 command Ax
1617              PMC2_Cmd_BX,                    // Process PMC2 command Bx
1618              PMC2_Cmd_CX,                    // Process PMC2 command Cx
1619              PMC2_Cmd_DX,                    // Process PMC2 command Dx
1620              PMC2_Cmd_EX,                    // Process PMC2 command Ex
1621              PMC2_Cmd_FX                     // Process PMC2 command Fx
1622          };
1623          //----------------------------------------------------------------------------
1624          // Set&Get Status for Next Port60 Data Handle
1625          //----------------------------------------------------------------------------
1626          bit SetGetPortPM2Data(void)
1627          {
1628   1          if ( PM2Step == 0x00 )
1629   1          {
1630   2              PM2Step=0x01;   // Set Next Port60 Data Handle again
1631   2              return(0);
1632   2          }
1633   1          else
1634   1          {
1635   2              PM2Step=0x00;   // Set Command Finished
1636   2              return(1);
1637   2          }
1638   1      
1639   1      }
1640          
1641          //----------------------------------------------------------------------------
1642          // Special Handle
1643          // Get 1 Bytes PM Controller Data, PM_DATA (R/W)
1644          //----------------------------------------------------------------------------
1645          BYTE OEM_GetPortPM2Data(void)
1646          {
1647   1      
1648   1          WORD  iLOOP;
1649   1          iLOOP = WaitPM2DataDelay;
1650   1      
1651   1          do
1652   1          {
1653   2              if ( IS_BIT_SET(PM2STS,1) )
1654   2              {
1655   3                  if ( PM2STS & C_D )
1656   3                  {
1657   4                      return 0x00;
1658   4                  }
1659   3                  else
1660   3                  {
1661   4                      PM2Data = PM2DI;            // Load data
1662   4                      #if  SUPPORTED_RECORDER
1663   4                      if( En_Record68 )   {   RamDebug(0x68); RamDebug(PM2Data);  }
1664   4                      #endif
1665   4      
1666   4                      return 0x01;
1667   4                  }
C51 COMPILER V7.06   OEM_PMC2                                                              07/06/2010 09:59:50 PAGE 28  

1668   3              }
1669   2      
1670   2              iLOOP--;
1671   2          }
1672   1          while (iLOOP != 0 );
1673   1      
1674   1          return 0x00;
1675   1      
1676   1      }
1677          //----------------------------------------------------------------------------
1678          // Service Power Management Controller Interface
1679          //----------------------------------------------------------------------------
1680          void Service_PCI3(void)
1681          {
1682   1          if ( PM2STS & C_D2 )
1683   1          {
1684   2              PM2Cmd  = PM2DI;
1685   2              PM2Step = 0;
1686   2              #if  SUPPORTED_RECORDER
1687   2              if( En_Record6C )   {   RamDebug(0x6C); RamDebug(PM2Cmd);   }
1688   2              #endif
1689   2              (Port6C_Table[PM2Cmd>>4])();
1690   2          }
1691   1          else
1692   1          {
1693   2              PM2Data = PM2DI;
1694   2              if ( PM2Step != 0x00 )
1695   2              {
1696   3                  #if  SUPPORTED_RECORDER
1697   3                  if( En_Record68 )   {   RamDebug(0x68); RamDebug(PM2Data);  }
1698   3                  #endif
1699   3                   // Pls use PM2Step for Port 6C Routine Command
1700   3                  (Port6C_Table[PM2Cmd>>4]());
1701   3      
1702   3              }
1703   2              else
1704   2              {
1705   3                  #if  SUPPORTED_RECORDER
1706   3                  if( En_Record68 )   {   RamDebug(0x68); RamDebug(PM2Data);  }
1707   3                  #endif
1708   3                  while( PM2UnProcessCnt < 0xFF )
1709   3                  {
1710   4                      PM2UnProcessCnt++;
1711   4                  }
1712   3              }
1713   2      
1714   2          }
1715   1      }
1716          
1717          /*-----------------------------------------------------------------------------
1718           * End
1719           *---------------------------------------------------------------------------*/
C51 COMPILER V7.06   OEM_PMC2                                                              07/06/2010 09:59:50 PAGE 29  

ASSEMBLY LISTING OF GENERATED OBJECT CODE


             ; FUNCTION PMC2_CMD_00 (BEGIN)
                                           ; SOURCE LINE # 34
                                           ; SOURCE LINE # 35
                                           ; SOURCE LINE # 36
0000 22                RET     
             ; FUNCTION PMC2_CMD_00 (END)

             ; FUNCTION PMC2_CMD_01 (BEGIN)
                                           ; SOURCE LINE # 38
                                           ; SOURCE LINE # 39
                                           ; SOURCE LINE # 40
0000 22                RET     
             ; FUNCTION PMC2_CMD_01 (END)

             ; FUNCTION PMC2_CMD_02 (BEGIN)
                                           ; SOURCE LINE # 42
                                           ; SOURCE LINE # 43
                                           ; SOURCE LINE # 44
0000 22                RET     
             ; FUNCTION PMC2_CMD_02 (END)

             ; FUNCTION PMC2_CMD_03 (BEGIN)
                                           ; SOURCE LINE # 46
                                           ; SOURCE LINE # 47
                                           ; SOURCE LINE # 48
0000 22                RET     
             ; FUNCTION PMC2_CMD_03 (END)

             ; FUNCTION PMC2_CMD_04 (BEGIN)
                                           ; SOURCE LINE # 50
                                           ; SOURCE LINE # 51
                                           ; SOURCE LINE # 52
0000 22                RET     
             ; FUNCTION PMC2_CMD_04 (END)

             ; FUNCTION PMC2_CMD_05 (BEGIN)
                                           ; SOURCE LINE # 54
                                           ; SOURCE LINE # 55
                                           ; SOURCE LINE # 56
0000 22                RET     
             ; FUNCTION PMC2_CMD_05 (END)

             ; FUNCTION PMC2_CMD_06 (BEGIN)
                                           ; SOURCE LINE # 58
                                           ; SOURCE LINE # 59
                                           ; SOURCE LINE # 60
0000 22                RET     
             ; FUNCTION PMC2_CMD_06 (END)

             ; FUNCTION PMC2_CMD_07 (BEGIN)
                                           ; SOURCE LINE # 62
                                           ; SOURCE LINE # 63
                                           ; SOURCE LINE # 64
0000 22                RET     
             ; FUNCTION PMC2_CMD_07 (END)

             ; FUNCTION PMC2_CMD_08 (BEGIN)
                                           ; SOURCE LINE # 66
                                           ; SOURCE LINE # 67
C51 COMPILER V7.06   OEM_PMC2                                                              07/06/2010 09:59:50 PAGE 30  

                                           ; SOURCE LINE # 68
0000 22                RET     
             ; FUNCTION PMC2_CMD_08 (END)

             ; FUNCTION PMC2_CMD_09 (BEGIN)
                                           ; SOURCE LINE # 70
                                           ; SOURCE LINE # 71
                                           ; SOURCE LINE # 72
0000 22                RET     
             ; FUNCTION PMC2_CMD_09 (END)

             ; FUNCTION PMC2_CMD_0A (BEGIN)
                                           ; SOURCE LINE # 74
                                           ; SOURCE LINE # 75
                                           ; SOURCE LINE # 76
0000 22                RET     
             ; FUNCTION PMC2_CMD_0A (END)

             ; FUNCTION PMC2_CMD_0B (BEGIN)
                                           ; SOURCE LINE # 78
                                           ; SOURCE LINE # 79
                                           ; SOURCE LINE # 80
0000 22                RET     
             ; FUNCTION PMC2_CMD_0B (END)

             ; FUNCTION PMC2_CMD_0C (BEGIN)
                                           ; SOURCE LINE # 82
                                           ; SOURCE LINE # 83
                                           ; SOURCE LINE # 84
0000 22                RET     
             ; FUNCTION PMC2_CMD_0C (END)

             ; FUNCTION PMC2_CMD_0D (BEGIN)
                                           ; SOURCE LINE # 86
                                           ; SOURCE LINE # 87
                                           ; SOURCE LINE # 88
0000 22                RET     
             ; FUNCTION PMC2_CMD_0D (END)

             ; FUNCTION PMC2_CMD_0E (BEGIN)
                                           ; SOURCE LINE # 90
                                           ; SOURCE LINE # 91
                                           ; SOURCE LINE # 92
0000 22                RET     
             ; FUNCTION PMC2_CMD_0E (END)

             ; FUNCTION PMC2_CMD_0F (BEGIN)
                                           ; SOURCE LINE # 94
                                           ; SOURCE LINE # 95
                                           ; SOURCE LINE # 96
0000 22                RET     
             ; FUNCTION PMC2_CMD_0F (END)

             ; FUNCTION PMC2_CMD_10 (BEGIN)
                                           ; SOURCE LINE # 102
                                           ; SOURCE LINE # 103
                                           ; SOURCE LINE # 104
0000 22                RET     
             ; FUNCTION PMC2_CMD_10 (END)

             ; FUNCTION PMC2_CMD_11 (BEGIN)
                                           ; SOURCE LINE # 106
C51 COMPILER V7.06   OEM_PMC2                                                              07/06/2010 09:59:50 PAGE 31  

                                           ; SOURCE LINE # 107
                                           ; SOURCE LINE # 108
0000 22                RET     
             ; FUNCTION PMC2_CMD_11 (END)

             ; FUNCTION PMC2_CMD_12 (BEGIN)
                                           ; SOURCE LINE # 110
                                           ; SOURCE LINE # 111
                                           ; SOURCE LINE # 112
0000 22                RET     
             ; FUNCTION PMC2_CMD_12 (END)

             ; FUNCTION PMC2_CMD_13 (BEGIN)
                                           ; SOURCE LINE # 114
                                           ; SOURCE LINE # 115
                                           ; SOURCE LINE # 116
0000 22                RET     
             ; FUNCTION PMC2_CMD_13 (END)

             ; FUNCTION PMC2_CMD_14 (BEGIN)
                                           ; SOURCE LINE # 118
                                           ; SOURCE LINE # 119
                                           ; SOURCE LINE # 120
0000 22                RET     
             ; FUNCTION PMC2_CMD_14 (END)

             ; FUNCTION PMC2_CMD_15 (BEGIN)
                                           ; SOURCE LINE # 122
                                           ; SOURCE LINE # 123
                                           ; SOURCE LINE # 124
0000 901511            MOV     DPTR,#01511H
0003 E4                CLR     A
0004 F0                MOVX    @DPTR,A
                                           ; SOURCE LINE # 125
0005 22                RET     
             ; FUNCTION PMC2_CMD_15 (END)

             ; FUNCTION PMC2_CMD_16 (BEGIN)
                                           ; SOURCE LINE # 127
                                           ; SOURCE LINE # 128
                                           ; SOURCE LINE # 129
0000 22                RET     
             ; FUNCTION PMC2_CMD_16 (END)

             ; FUNCTION PMC2_CMD_17 (BEGIN)
                                           ; SOURCE LINE # 131
                                           ; SOURCE LINE # 132
                                           ; SOURCE LINE # 133
0000 22                RET     
             ; FUNCTION PMC2_CMD_17 (END)

             ; FUNCTION PMC2_CMD_18 (BEGIN)
                                           ; SOURCE LINE # 135
                                           ; SOURCE LINE # 136
                                           ; SOURCE LINE # 137
0000 22                RET     
             ; FUNCTION PMC2_CMD_18 (END)

             ; FUNCTION PMC2_CMD_19 (BEGIN)
                                           ; SOURCE LINE # 139
                                           ; SOURCE LINE # 140
                                           ; SOURCE LINE # 141
C51 COMPILER V7.06   OEM_PMC2                                                              07/06/2010 09:59:50 PAGE 32  

0000 22                RET     
             ; FUNCTION PMC2_CMD_19 (END)

             ; FUNCTION PMC2_CMD_1A (BEGIN)
                                           ; SOURCE LINE # 143
                                           ; SOURCE LINE # 144
                                           ; SOURCE LINE # 145
0000 901511            MOV     DPTR,#01511H
0003 E4                CLR     A
0004 F0                MOVX    @DPTR,A
                                           ; SOURCE LINE # 146
0005 22                RET     
             ; FUNCTION PMC2_CMD_1A (END)

             ; FUNCTION PMC2_CMD_1B (BEGIN)
                                           ; SOURCE LINE # 148
                                           ; SOURCE LINE # 149
                                           ; SOURCE LINE # 150
0000 22                RET     
             ; FUNCTION PMC2_CMD_1B (END)

             ; FUNCTION PMC2_CMD_1C (BEGIN)
                                           ; SOURCE LINE # 152
                                           ; SOURCE LINE # 153
                                           ; SOURCE LINE # 154
0000 22                RET     
             ; FUNCTION PMC2_CMD_1C (END)

             ; FUNCTION PMC2_CMD_1D (BEGIN)
                                           ; SOURCE LINE # 156
                                           ; SOURCE LINE # 157
                                           ; SOURCE LINE # 158
0000 22                RET     
             ; FUNCTION PMC2_CMD_1D (END)

             ; FUNCTION PMC2_CMD_1E (BEGIN)
                                           ; SOURCE LINE # 160
                                           ; SOURCE LINE # 161
                                           ; SOURCE LINE # 162
0000 22                RET     
             ; FUNCTION PMC2_CMD_1E (END)

             ; FUNCTION PMC2_CMD_1F (BEGIN)
                                           ; SOURCE LINE # 164
                                           ; SOURCE LINE # 165
                                           ; SOURCE LINE # 166
0000 22                RET     
             ; FUNCTION PMC2_CMD_1F (END)

             ; FUNCTION PMC2_CMD_20 (BEGIN)
                                           ; SOURCE LINE # 172
                                           ; SOURCE LINE # 173
                                           ; SOURCE LINE # 174
0000 22                RET     
             ; FUNCTION PMC2_CMD_20 (END)

             ; FUNCTION PMC2_CMD_21 (BEGIN)
                                           ; SOURCE LINE # 176
                                           ; SOURCE LINE # 177
                                           ; SOURCE LINE # 178
0000 901511            MOV     DPTR,#01511H
0003 E4                CLR     A
C51 COMPILER V7.06   OEM_PMC2                                                              07/06/2010 09:59:50 PAGE 33  

0004 F0                MOVX    @DPTR,A
                                           ; SOURCE LINE # 179
0005 22                RET     
             ; FUNCTION PMC2_CMD_21 (END)

             ; FUNCTION PMC2_CMD_22 (BEGIN)
                                           ; SOURCE LINE # 181
                                           ; SOURCE LINE # 182
                                           ; SOURCE LINE # 184
0000 22                RET     
             ; FUNCTION PMC2_CMD_22 (END)

             ; FUNCTION PMC2_CMD_23 (BEGIN)
                                           ; SOURCE LINE # 186
                                           ; SOURCE LINE # 187
                                           ; SOURCE LINE # 188
0000 22                RET     
             ; FUNCTION PMC2_CMD_23 (END)

             ; FUNCTION PMC2_CMD_24 (BEGIN)
                                           ; SOURCE LINE # 190
                                           ; SOURCE LINE # 191
                                           ; SOURCE LINE # 192
0000 22                RET     
             ; FUNCTION PMC2_CMD_24 (END)

             ; FUNCTION PMC2_CMD_25 (BEGIN)
                                           ; SOURCE LINE # 194
                                           ; SOURCE LINE # 195
                                           ; SOURCE LINE # 196
0000 22                RET     
             ; FUNCTION PMC2_CMD_25 (END)

             ; FUNCTION PMC2_CMD_26 (BEGIN)
                                           ; SOURCE LINE # 198
                                           ; SOURCE LINE # 199
                                           ; SOURCE LINE # 200
0000 22                RET     
             ; FUNCTION PMC2_CMD_26 (END)

             ; FUNCTION PMC2_CMD_27 (BEGIN)
                                           ; SOURCE LINE # 202
                                           ; SOURCE LINE # 203
                                           ; SOURCE LINE # 204
0000 22                RET     
             ; FUNCTION PMC2_CMD_27 (END)

             ; FUNCTION PMC2_CMD_28 (BEGIN)
                                           ; SOURCE LINE # 206
                                           ; SOURCE LINE # 207
                                           ; SOURCE LINE # 208
0000 22                RET     
             ; FUNCTION PMC2_CMD_28 (END)

             ; FUNCTION PMC2_CMD_29 (BEGIN)
                                           ; SOURCE LINE # 210
                                           ; SOURCE LINE # 211
                                           ; SOURCE LINE # 212
0000 22                RET     
             ; FUNCTION PMC2_CMD_29 (END)

             ; FUNCTION PMC2_CMD_2A (BEGIN)
C51 COMPILER V7.06   OEM_PMC2                                                              07/06/2010 09:59:50 PAGE 34  

                                           ; SOURCE LINE # 214
                                           ; SOURCE LINE # 215
                                           ; SOURCE LINE # 216
0000 22                RET     
             ; FUNCTION PMC2_CMD_2A (END)

             ; FUNCTION PMC2_CMD_2B (BEGIN)
                                           ; SOURCE LINE # 218
                                           ; SOURCE LINE # 219
                                           ; SOURCE LINE # 220
0000 22                RET     
             ; FUNCTION PMC2_CMD_2B (END)

             ; FUNCTION PMC2_CMD_2C (BEGIN)
                                           ; SOURCE LINE # 222
                                           ; SOURCE LINE # 223
                                           ; SOURCE LINE # 224
0000 22                RET     
             ; FUNCTION PMC2_CMD_2C (END)

             ; FUNCTION PMC2_CMD_2D (BEGIN)
                                           ; SOURCE LINE # 226
                                           ; SOURCE LINE # 227
                                           ; SOURCE LINE # 228
0000 22                RET     
             ; FUNCTION PMC2_CMD_2D (END)

             ; FUNCTION PMC2_CMD_2E (BEGIN)
                                           ; SOURCE LINE # 230
                                           ; SOURCE LINE # 231
                                           ; SOURCE LINE # 232
0000 22                RET     
             ; FUNCTION PMC2_CMD_2E (END)

             ; FUNCTION PMC2_CMD_2F (BEGIN)
                                           ; SOURCE LINE # 234
                                           ; SOURCE LINE # 235
                                           ; SOURCE LINE # 236
0000 22                RET     
             ; FUNCTION PMC2_CMD_2F (END)

             ; FUNCTION PMC2_CMD_30 (BEGIN)
                                           ; SOURCE LINE # 242
                                           ; SOURCE LINE # 243
                                           ; SOURCE LINE # 245
0000 22                RET     
             ; FUNCTION PMC2_CMD_30 (END)

             ; FUNCTION PMC2_CMD_31 (BEGIN)
                                           ; SOURCE LINE # 247
                                           ; SOURCE LINE # 248
                                           ; SOURCE LINE # 250
0000 22                RET     
             ; FUNCTION PMC2_CMD_31 (END)

             ; FUNCTION PMC2_CMD_32 (BEGIN)
                                           ; SOURCE LINE # 252
                                           ; SOURCE LINE # 253
                                           ; SOURCE LINE # 255
0000 22                RET     
             ; FUNCTION PMC2_CMD_32 (END)

C51 COMPILER V7.06   OEM_PMC2                                                              07/06/2010 09:59:50 PAGE 35  

             ; FUNCTION PMC2_CMD_33 (BEGIN)
                                           ; SOURCE LINE # 257
                                           ; SOURCE LINE # 258
                                           ; SOURCE LINE # 259
0000 120000      R     LCALL   SetGetPortPM2Data
0003 5005              JNC     ?C0053
                                           ; SOURCE LINE # 260
                                           ; SOURCE LINE # 261
0005 901511            MOV     DPTR,#01511H
0008 E4                CLR     A
0009 F0                MOVX    @DPTR,A
                                           ; SOURCE LINE # 262
                                           ; SOURCE LINE # 263
000A         ?C0053:
000A 22                RET     
             ; FUNCTION PMC2_CMD_33 (END)

             ; FUNCTION PMC2_CMD_34 (BEGIN)
                                           ; SOURCE LINE # 265
                                           ; SOURCE LINE # 266
                                           ; SOURCE LINE # 267
0000 901511            MOV     DPTR,#01511H
0003 E4                CLR     A
0004 F0                MOVX    @DPTR,A
                                           ; SOURCE LINE # 268
0005 22                RET     
             ; FUNCTION PMC2_CMD_34 (END)

             ; FUNCTION PMC2_CMD_35 (BEGIN)
                                           ; SOURCE LINE # 270
                                           ; SOURCE LINE # 271
                                           ; SOURCE LINE # 272
0000 901511            MOV     DPTR,#01511H
0003 E4                CLR     A
0004 F0                MOVX    @DPTR,A
                                           ; SOURCE LINE # 273
0005 22                RET     
             ; FUNCTION PMC2_CMD_35 (END)

             ; FUNCTION PMC2_CMD_36 (BEGIN)
                                           ; SOURCE LINE # 275
                                           ; SOURCE LINE # 276
                                           ; SOURCE LINE # 277
0000 900340            MOV     DPTR,#0340H
0003 E0                MOVX    A,@DPTR
0004 901511            MOV     DPTR,#01511H
0007 F0                MOVX    @DPTR,A
                                           ; SOURCE LINE # 278
0008 22                RET     
             ; FUNCTION PMC2_CMD_36 (END)

             ; FUNCTION PMC2_CMD_37 (BEGIN)
                                           ; SOURCE LINE # 280
                                           ; SOURCE LINE # 281
                                           ; SOURCE LINE # 282
0000 901511            MOV     DPTR,#01511H
0003 E4                CLR     A
0004 F0                MOVX    @DPTR,A
                                           ; SOURCE LINE # 283
0005 22                RET     
             ; FUNCTION PMC2_CMD_37 (END)

C51 COMPILER V7.06   OEM_PMC2                                                              07/06/2010 09:59:50 PAGE 36  

             ; FUNCTION PMC2_CMD_38 (BEGIN)
                                           ; SOURCE LINE # 285
                                           ; SOURCE LINE # 286
                                           ; SOURCE LINE # 287
0000 901511            MOV     DPTR,#01511H
0003 E4                CLR     A
0004 F0                MOVX    @DPTR,A
                                           ; SOURCE LINE # 288
0005 22                RET     
             ; FUNCTION PMC2_CMD_38 (END)

             ; FUNCTION PMC2_CMD_39 (BEGIN)
                                           ; SOURCE LINE # 290
                                           ; SOURCE LINE # 291
                                           ; SOURCE LINE # 292
0000 901511            MOV     DPTR,#01511H
0003 E4                CLR     A
0004 F0                MOVX    @DPTR,A
                                           ; SOURCE LINE # 293
0005 22                RET     
             ; FUNCTION PMC2_CMD_39 (END)

             ; FUNCTION PMC2_CMD_3A (BEGIN)
                                           ; SOURCE LINE # 295
                                           ; SOURCE LINE # 296
                                           ; SOURCE LINE # 297
0000 22                RET     
             ; FUNCTION PMC2_CMD_3A (END)

             ; FUNCTION PMC2_CMD_3B (BEGIN)
                                           ; SOURCE LINE # 299
                                           ; SOURCE LINE # 300
                                           ; SOURCE LINE # 301
0000 22                RET     
             ; FUNCTION PMC2_CMD_3B (END)

             ; FUNCTION PMC2_CMD_3C (BEGIN)
                                           ; SOURCE LINE # 303
                                           ; SOURCE LINE # 304
                                           ; SOURCE LINE # 305
0000 22                RET     
             ; FUNCTION PMC2_CMD_3C (END)

             ; FUNCTION PMC2_CMD_3D (BEGIN)
                                           ; SOURCE LINE # 307
                                           ; SOURCE LINE # 308
                                           ; SOURCE LINE # 309
0000 22                RET     
             ; FUNCTION PMC2_CMD_3D (END)

             ; FUNCTION PMC2_CMD_3E (BEGIN)
                                           ; SOURCE LINE # 311
                                           ; SOURCE LINE # 312
                                           ; SOURCE LINE # 313
0000 22                RET     
             ; FUNCTION PMC2_CMD_3E (END)

             ; FUNCTION PMC2_CMD_3F (BEGIN)
                                           ; SOURCE LINE # 315
                                           ; SOURCE LINE # 316
                                           ; SOURCE LINE # 317
0000 22                RET     
C51 COMPILER V7.06   OEM_PMC2                                                              07/06/2010 09:59:50 PAGE 37  

             ; FUNCTION PMC2_CMD_3F (END)

             ; FUNCTION PMC2_CMD_40 (BEGIN)
                                           ; SOURCE LINE # 319
                                           ; SOURCE LINE # 320
                                           ; SOURCE LINE # 321
0000 22                RET     
             ; FUNCTION PMC2_CMD_40 (END)

             ; FUNCTION PMC2_CMD_41 (BEGIN)
                                           ; SOURCE LINE # 327
                                           ; SOURCE LINE # 328
                                           ; SOURCE LINE # 329
0000 22                RET     
             ; FUNCTION PMC2_CMD_41 (END)

             ; FUNCTION PMC2_CMD_42 (BEGIN)
                                           ; SOURCE LINE # 331
                                           ; SOURCE LINE # 332
                                           ; SOURCE LINE # 333
0000 22                RET     
             ; FUNCTION PMC2_CMD_42 (END)

             ; FUNCTION PMC2_CMD_43 (BEGIN)
                                           ; SOURCE LINE # 335
                                           ; SOURCE LINE # 336
                                           ; SOURCE LINE # 337
0000 22                RET     
             ; FUNCTION PMC2_CMD_43 (END)

             ; FUNCTION PMC2_CMD_44 (BEGIN)
                                           ; SOURCE LINE # 339
                                           ; SOURCE LINE # 340
                                           ; SOURCE LINE # 341
0000 22                RET     
             ; FUNCTION PMC2_CMD_44 (END)

             ; FUNCTION PMC2_CMD_45 (BEGIN)
                                           ; SOURCE LINE # 343
                                           ; SOURCE LINE # 344
                                           ; SOURCE LINE # 345
0000 22                RET     
             ; FUNCTION PMC2_CMD_45 (END)

             ; FUNCTION PMC2_CMD_46 (BEGIN)
                                           ; SOURCE LINE # 347
                                           ; SOURCE LINE # 348
                                           ; SOURCE LINE # 349
0000 22                RET     
             ; FUNCTION PMC2_CMD_46 (END)

             ; FUNCTION PMC2_CMD_47 (BEGIN)
                                           ; SOURCE LINE # 351
                                           ; SOURCE LINE # 352
                                           ; SOURCE LINE # 353
0000 22                RET     
             ; FUNCTION PMC2_CMD_47 (END)

             ; FUNCTION PMC2_CMD_48 (BEGIN)
                                           ; SOURCE LINE # 355
                                           ; SOURCE LINE # 356
                                           ; SOURCE LINE # 357
C51 COMPILER V7.06   OEM_PMC2                                                              07/06/2010 09:59:50 PAGE 38  

0000 22                RET     
             ; FUNCTION PMC2_CMD_48 (END)

             ; FUNCTION PMC2_CMD_49 (BEGIN)
                                           ; SOURCE LINE # 359
                                           ; SOURCE LINE # 360
                                           ; SOURCE LINE # 361
0000 22                RET     
             ; FUNCTION PMC2_CMD_49 (END)

             ; FUNCTION PMC2_CMD_4A (BEGIN)
                                           ; SOURCE LINE # 363
                                           ; SOURCE LINE # 364
                                           ; SOURCE LINE # 365
0000 22                RET     
             ; FUNCTION PMC2_CMD_4A (END)

             ; FUNCTION PMC2_CMD_4B (BEGIN)
                                           ; SOURCE LINE # 367
                                           ; SOURCE LINE # 368
                                           ; SOURCE LINE # 369
0000 22                RET     
             ; FUNCTION PMC2_CMD_4B (END)

             ; FUNCTION PMC2_CMD_4C (BEGIN)
                                           ; SOURCE LINE # 371
                                           ; SOURCE LINE # 372
                                           ; SOURCE LINE # 373
0000 22                RET     
             ; FUNCTION PMC2_CMD_4C (END)

             ; FUNCTION PMC2_CMD_4D (BEGIN)
                                           ; SOURCE LINE # 375
                                           ; SOURCE LINE # 376
                                           ; SOURCE LINE # 377
0000 22                RET     
             ; FUNCTION PMC2_CMD_4D (END)

             ; FUNCTION PMC2_CMD_4E (BEGIN)
                                           ; SOURCE LINE # 379
                                           ; SOURCE LINE # 380
                                           ; SOURCE LINE # 381
0000 22                RET     
             ; FUNCTION PMC2_CMD_4E (END)

             ; FUNCTION PMC2_CMD_4F (BEGIN)
                                           ; SOURCE LINE # 383
                                           ; SOURCE LINE # 384
                                           ; SOURCE LINE # 385
0000 22                RET     
             ; FUNCTION PMC2_CMD_4F (END)

             ; FUNCTION PMC2_CMD_50 (BEGIN)
                                           ; SOURCE LINE # 391
                                           ; SOURCE LINE # 392
                                           ; SOURCE LINE # 393
0000 22                RET     
             ; FUNCTION PMC2_CMD_50 (END)

             ; FUNCTION PMC2_CMD_51 (BEGIN)
                                           ; SOURCE LINE # 395
                                           ; SOURCE LINE # 396
C51 COMPILER V7.06   OEM_PMC2                                                              07/06/2010 09:59:50 PAGE 39  

                                           ; SOURCE LINE # 397
0000 22                RET     
             ; FUNCTION PMC2_CMD_51 (END)

             ; FUNCTION PMC2_CMD_52 (BEGIN)
                                           ; SOURCE LINE # 399
                                           ; SOURCE LINE # 400
                                           ; SOURCE LINE # 401
0000 22                RET     
             ; FUNCTION PMC2_CMD_52 (END)

             ; FUNCTION PMC2_CMD_53 (BEGIN)
                                           ; SOURCE LINE # 403
                                           ; SOURCE LINE # 404
                                           ; SOURCE LINE # 405
0000 22                RET     
             ; FUNCTION PMC2_CMD_53 (END)

             ; FUNCTION PMC2_CMD_54 (BEGIN)
                                           ; SOURCE LINE # 407
                                           ; SOURCE LINE # 408
                                           ; SOURCE LINE # 409
0000 22                RET     
             ; FUNCTION PMC2_CMD_54 (END)

             ; FUNCTION PMC2_CMD_55 (BEGIN)
                                           ; SOURCE LINE # 411
                                           ; SOURCE LINE # 412
                                           ; SOURCE LINE # 413
0000 22                RET     
             ; FUNCTION PMC2_CMD_55 (END)

             ; FUNCTION PMC2_CMD_56 (BEGIN)
                                           ; SOURCE LINE # 415
                                           ; SOURCE LINE # 416
                                           ; SOURCE LINE # 417
0000 22                RET     
             ; FUNCTION PMC2_CMD_56 (END)

             ; FUNCTION PMC2_CMD_57 (BEGIN)
                                           ; SOURCE LINE # 419
                                           ; SOURCE LINE # 420
                                           ; SOURCE LINE # 421
0000 22                RET     
             ; FUNCTION PMC2_CMD_57 (END)

             ; FUNCTION PMC2_CMD_58 (BEGIN)
                                           ; SOURCE LINE # 423
                                           ; SOURCE LINE # 424
                                           ; SOURCE LINE # 425
0000 22                RET     
             ; FUNCTION PMC2_CMD_58 (END)

             ; FUNCTION PMC2_CMD_59 (BEGIN)
                                           ; SOURCE LINE # 427
                                           ; SOURCE LINE # 428
                                           ; SOURCE LINE # 429
0000 22                RET     
             ; FUNCTION PMC2_CMD_59 (END)

             ; FUNCTION PMC2_CMD_5A (BEGIN)
                                           ; SOURCE LINE # 431
C51 COMPILER V7.06   OEM_PMC2                                                              07/06/2010 09:59:50 PAGE 40  

                                           ; SOURCE LINE # 432
                                           ; SOURCE LINE # 433
0000 22                RET     
             ; FUNCTION PMC2_CMD_5A (END)

             ; FUNCTION PMC2_CMD_5B (BEGIN)
                                           ; SOURCE LINE # 435
                                           ; SOURCE LINE # 436
                                           ; SOURCE LINE # 437
0000 22                RET     
             ; FUNCTION PMC2_CMD_5B (END)

             ; FUNCTION PMC2_CMD_5C (BEGIN)
                                           ; SOURCE LINE # 439
                                           ; SOURCE LINE # 440
                                           ; SOURCE LINE # 441
0000 22                RET     
             ; FUNCTION PMC2_CMD_5C (END)

             ; FUNCTION PMC2_CMD_5D (BEGIN)
                                           ; SOURCE LINE # 443
                                           ; SOURCE LINE # 444
                                           ; SOURCE LINE # 445
0000 22                RET     
             ; FUNCTION PMC2_CMD_5D (END)

             ; FUNCTION PMC2_CMD_5E (BEGIN)
                                           ; SOURCE LINE # 447
                                           ; SOURCE LINE # 448
                                           ; SOURCE LINE # 449
0000 22                RET     
             ; FUNCTION PMC2_CMD_5E (END)

             ; FUNCTION PMC2_CMD_5F (BEGIN)
                                           ; SOURCE LINE # 451
                                           ; SOURCE LINE # 452
                                           ; SOURCE LINE # 453
0000 22                RET     
             ; FUNCTION PMC2_CMD_5F (END)

             ; FUNCTION PMC2_CMD_60 (BEGIN)
                                           ; SOURCE LINE # 459
                                           ; SOURCE LINE # 460
                                           ; SOURCE LINE # 461
0000 22                RET     
             ; FUNCTION PMC2_CMD_60 (END)

             ; FUNCTION PMC2_CMD_61 (BEGIN)
                                           ; SOURCE LINE # 463
                                           ; SOURCE LINE # 464
                                           ; SOURCE LINE # 465
0000 22                RET     
             ; FUNCTION PMC2_CMD_61 (END)

             ; FUNCTION PMC2_CMD_62 (BEGIN)
                                           ; SOURCE LINE # 467
                                           ; SOURCE LINE # 468
                                           ; SOURCE LINE # 469
0000 22                RET     
             ; FUNCTION PMC2_CMD_62 (END)

             ; FUNCTION PMC2_CMD_63 (BEGIN)
C51 COMPILER V7.06   OEM_PMC2                                                              07/06/2010 09:59:50 PAGE 41  

                                           ; SOURCE LINE # 471
                                           ; SOURCE LINE # 472
                                           ; SOURCE LINE # 473
0000 22                RET     
             ; FUNCTION PMC2_CMD_63 (END)

             ; FUNCTION PMC2_CMD_64 (BEGIN)
                                           ; SOURCE LINE # 475
                                           ; SOURCE LINE # 476
                                           ; SOURCE LINE # 477
0000 22                RET     
             ; FUNCTION PMC2_CMD_64 (END)

             ; FUNCTION PMC2_CMD_65 (BEGIN)
                                           ; SOURCE LINE # 479
                                           ; SOURCE LINE # 480
                                           ; SOURCE LINE # 481
0000 22                RET     
             ; FUNCTION PMC2_CMD_65 (END)

             ; FUNCTION PMC2_CMD_66 (BEGIN)
                                           ; SOURCE LINE # 483
                                           ; SOURCE LINE # 484
                                           ; SOURCE LINE # 485
0000 22                RET     
             ; FUNCTION PMC2_CMD_66 (END)

             ; FUNCTION PMC2_CMD_67 (BEGIN)
                                           ; SOURCE LINE # 487
                                           ; SOURCE LINE # 488
                                           ; SOURCE LINE # 489
0000 22                RET     
             ; FUNCTION PMC2_CMD_67 (END)

             ; FUNCTION PMC2_CMD_68 (BEGIN)
                                           ; SOURCE LINE # 491
                                           ; SOURCE LINE # 492
                                           ; SOURCE LINE # 493
0000 22                RET     
             ; FUNCTION PMC2_CMD_68 (END)

             ; FUNCTION PMC2_CMD_69 (BEGIN)
                                           ; SOURCE LINE # 495
                                           ; SOURCE LINE # 496
                                           ; SOURCE LINE # 497
0000 22                RET     
             ; FUNCTION PMC2_CMD_69 (END)

             ; FUNCTION PMC2_CMD_6A (BEGIN)
                                           ; SOURCE LINE # 499
                                           ; SOURCE LINE # 500
                                           ; SOURCE LINE # 501
0000 22                RET     
             ; FUNCTION PMC2_CMD_6A (END)

             ; FUNCTION PMC2_CMD_6B (BEGIN)
                                           ; SOURCE LINE # 503
                                           ; SOURCE LINE # 504
                                           ; SOURCE LINE # 505
0000 22                RET     
             ; FUNCTION PMC2_CMD_6B (END)

C51 COMPILER V7.06   OEM_PMC2                                                              07/06/2010 09:59:50 PAGE 42  

             ; FUNCTION PMC2_CMD_6C (BEGIN)
                                           ; SOURCE LINE # 507
                                           ; SOURCE LINE # 508
                                           ; SOURCE LINE # 509
0000 22                RET     
             ; FUNCTION PMC2_CMD_6C (END)

             ; FUNCTION PMC2_CMD_6D (BEGIN)
                                           ; SOURCE LINE # 511
                                           ; SOURCE LINE # 512
                                           ; SOURCE LINE # 513
0000 22                RET     
             ; FUNCTION PMC2_CMD_6D (END)

             ; FUNCTION PMC2_CMD_6E (BEGIN)
                                           ; SOURCE LINE # 515
                                           ; SOURCE LINE # 516
                                           ; SOURCE LINE # 517
0000 22                RET     
             ; FUNCTION PMC2_CMD_6E (END)

             ; FUNCTION PMC2_CMD_6F (BEGIN)
                                           ; SOURCE LINE # 519
                                           ; SOURCE LINE # 520
                                           ; SOURCE LINE # 521
0000 22                RET     
             ; FUNCTION PMC2_CMD_6F (END)

             ; FUNCTION PMC2_CMD_70 (BEGIN)
                                           ; SOURCE LINE # 527
                                           ; SOURCE LINE # 528
                                           ; SOURCE LINE # 529
0000 22                RET     
             ; FUNCTION PMC2_CMD_70 (END)

             ; FUNCTION PMC2_CMD_71 (BEGIN)
                                           ; SOURCE LINE # 531
                                           ; SOURCE LINE # 532
                                           ; SOURCE LINE # 533
0000 22                RET     
             ; FUNCTION PMC2_CMD_71 (END)

             ; FUNCTION PMC2_CMD_72 (BEGIN)
                                           ; SOURCE LINE # 535
                                           ; SOURCE LINE # 536
                                           ; SOURCE LINE # 537
0000 22                RET     
             ; FUNCTION PMC2_CMD_72 (END)

             ; FUNCTION PMC2_CMD_73 (BEGIN)
                                           ; SOURCE LINE # 539
                                           ; SOURCE LINE # 540
                                           ; SOURCE LINE # 541
0000 22                RET     
             ; FUNCTION PMC2_CMD_73 (END)

             ; FUNCTION PMC2_CMD_74 (BEGIN)
                                           ; SOURCE LINE # 543
                                           ; SOURCE LINE # 544
                                           ; SOURCE LINE # 545
0000 22                RET     
             ; FUNCTION PMC2_CMD_74 (END)
C51 COMPILER V7.06   OEM_PMC2                                                              07/06/2010 09:59:50 PAGE 43  


             ; FUNCTION PMC2_CMD_75 (BEGIN)
                                           ; SOURCE LINE # 547
                                           ; SOURCE LINE # 548
                                           ; SOURCE LINE # 549
0000 22                RET     
             ; FUNCTION PMC2_CMD_75 (END)

             ; FUNCTION PMC2_CMD_76 (BEGIN)
                                           ; SOURCE LINE # 551
                                           ; SOURCE LINE # 552
                                           ; SOURCE LINE # 553
0000 22                RET     
             ; FUNCTION PMC2_CMD_76 (END)

             ; FUNCTION PMC2_CMD_77 (BEGIN)
                                           ; SOURCE LINE # 555
                                           ; SOURCE LINE # 556
                                           ; SOURCE LINE # 557
0000 22                RET     
             ; FUNCTION PMC2_CMD_77 (END)

             ; FUNCTION PMC2_CMD_78 (BEGIN)
                                           ; SOURCE LINE # 559
                                           ; SOURCE LINE # 560
                                           ; SOURCE LINE # 561
0000 22                RET     
             ; FUNCTION PMC2_CMD_78 (END)

             ; FUNCTION PMC2_CMD_79 (BEGIN)
                                           ; SOURCE LINE # 563
                                           ; SOURCE LINE # 564
                                           ; SOURCE LINE # 565
0000 22                RET     
             ; FUNCTION PMC2_CMD_79 (END)

             ; FUNCTION PMC2_CMD_7A (BEGIN)
                                           ; SOURCE LINE # 567
                                           ; SOURCE LINE # 568
                                           ; SOURCE LINE # 569
0000 22                RET     
             ; FUNCTION PMC2_CMD_7A (END)

             ; FUNCTION PMC2_CMD_7B (BEGIN)
                                           ; SOURCE LINE # 571
                                           ; SOURCE LINE # 572
                                           ; SOURCE LINE # 573
0000 22                RET     
             ; FUNCTION PMC2_CMD_7B (END)

             ; FUNCTION PMC2_CMD_7C (BEGIN)
                                           ; SOURCE LINE # 575
                                           ; SOURCE LINE # 576
                                           ; SOURCE LINE # 577
0000 22                RET     
             ; FUNCTION PMC2_CMD_7C (END)

             ; FUNCTION PMC2_CMD_7D (BEGIN)
                                           ; SOURCE LINE # 579
                                           ; SOURCE LINE # 580
                                           ; SOURCE LINE # 581
0000 22                RET     
C51 COMPILER V7.06   OEM_PMC2                                                              07/06/2010 09:59:50 PAGE 44  

             ; FUNCTION PMC2_CMD_7D (END)

             ; FUNCTION PMC2_CMD_7E (BEGIN)
                                           ; SOURCE LINE # 583
                                           ; SOURCE LINE # 584
                                           ; SOURCE LINE # 585
0000 22                RET     
             ; FUNCTION PMC2_CMD_7E (END)

             ; FUNCTION PMC2_CMD_7F (BEGIN)
                                           ; SOURCE LINE # 587
                                           ; SOURCE LINE # 588
                                           ; SOURCE LINE # 589
0000 22                RET     
             ; FUNCTION PMC2_CMD_7F (END)

             ; FUNCTION PMC2_CMD_80 (BEGIN)
                                           ; SOURCE LINE # 595
                                           ; SOURCE LINE # 596
                                           ; SOURCE LINE # 597
0000 22                RET     
             ; FUNCTION PMC2_CMD_80 (END)

             ; FUNCTION PMC2_CMD_81 (BEGIN)
                                           ; SOURCE LINE # 599
                                           ; SOURCE LINE # 600
                                           ; SOURCE LINE # 601
0000 22                RET     
             ; FUNCTION PMC2_CMD_81 (END)

             ; FUNCTION PMC2_CMD_82 (BEGIN)
                                           ; SOURCE LINE # 603
                                           ; SOURCE LINE # 604
                                           ; SOURCE LINE # 605
0000 22                RET     
             ; FUNCTION PMC2_CMD_82 (END)

             ; FUNCTION PMC2_CMD_83 (BEGIN)
                                           ; SOURCE LINE # 607
                                           ; SOURCE LINE # 608
                                           ; SOURCE LINE # 609
0000 22                RET     
             ; FUNCTION PMC2_CMD_83 (END)

             ; FUNCTION PMC2_CMD_84 (BEGIN)
                                           ; SOURCE LINE # 611
                                           ; SOURCE LINE # 612
                                           ; SOURCE LINE # 613
0000 22                RET     
             ; FUNCTION PMC2_CMD_84 (END)

             ; FUNCTION PMC2_CMD_85 (BEGIN)
                                           ; SOURCE LINE # 615
                                           ; SOURCE LINE # 616
                                           ; SOURCE LINE # 617
0000 22                RET     
             ; FUNCTION PMC2_CMD_85 (END)

             ; FUNCTION PMC2_CMD_86 (BEGIN)
                                           ; SOURCE LINE # 619
                                           ; SOURCE LINE # 620
                                           ; SOURCE LINE # 621
C51 COMPILER V7.06   OEM_PMC2                                                              07/06/2010 09:59:50 PAGE 45  

0000 22                RET     
             ; FUNCTION PMC2_CMD_86 (END)

             ; FUNCTION PMC2_CMD_87 (BEGIN)
                                           ; SOURCE LINE # 623
                                           ; SOURCE LINE # 624
                                           ; SOURCE LINE # 625
0000 22                RET     
             ; FUNCTION PMC2_CMD_87 (END)

             ; FUNCTION PMC2_CMD_89 (BEGIN)
                                           ; SOURCE LINE # 627
                                           ; SOURCE LINE # 628
                                           ; SOURCE LINE # 629
0000 22                RET     
             ; FUNCTION PMC2_CMD_89 (END)

             ; FUNCTION PMC2_CMD_88 (BEGIN)
                                           ; SOURCE LINE # 631
                                           ; SOURCE LINE # 632
                                           ; SOURCE LINE # 633
0000 22                RET     
             ; FUNCTION PMC2_CMD_88 (END)

             ; FUNCTION PMC2_CMD_8A (BEGIN)
                                           ; SOURCE LINE # 635
                                           ; SOURCE LINE # 636
                                           ; SOURCE LINE # 637
0000 22                RET     
             ; FUNCTION PMC2_CMD_8A (END)

             ; FUNCTION PMC2_CMD_8B (BEGIN)
                                           ; SOURCE LINE # 639
                                           ; SOURCE LINE # 640
                                           ; SOURCE LINE # 641
0000 22                RET     
             ; FUNCTION PMC2_CMD_8B (END)

             ; FUNCTION PMC2_CMD_8C (BEGIN)
                                           ; SOURCE LINE # 643
                                           ; SOURCE LINE # 644
                                           ; SOURCE LINE # 645
0000 22                RET     
             ; FUNCTION PMC2_CMD_8C (END)

             ; FUNCTION PMC2_CMD_8D (BEGIN)
                                           ; SOURCE LINE # 647
                                           ; SOURCE LINE # 648
                                           ; SOURCE LINE # 649
0000 22                RET     
             ; FUNCTION PMC2_CMD_8D (END)

             ; FUNCTION PMC2_CMD_8E (BEGIN)
                                           ; SOURCE LINE # 651
                                           ; SOURCE LINE # 652
                                           ; SOURCE LINE # 653
0000 22                RET     
             ; FUNCTION PMC2_CMD_8E (END)

             ; FUNCTION PMC2_CMD_8F (BEGIN)
                                           ; SOURCE LINE # 655
                                           ; SOURCE LINE # 656
C51 COMPILER V7.06   OEM_PMC2                                                              07/06/2010 09:59:50 PAGE 46  

                                           ; SOURCE LINE # 657
0000 22                RET     
             ; FUNCTION PMC2_CMD_8F (END)

             ; FUNCTION PMC2_CMD_90 (BEGIN)
                                           ; SOURCE LINE # 663
                                           ; SOURCE LINE # 664
                                           ; SOURCE LINE # 665
0000 22                RET     
             ; FUNCTION PMC2_CMD_90 (END)

             ; FUNCTION PMC2_CMD_91 (BEGIN)
                                           ; SOURCE LINE # 667
                                           ; SOURCE LINE # 668
                                           ; SOURCE LINE # 669
0000 22                RET     
             ; FUNCTION PMC2_CMD_91 (END)

             ; FUNCTION PMC2_CMD_92 (BEGIN)
                                           ; SOURCE LINE # 671
                                           ; SOURCE LINE # 672
                                           ; SOURCE LINE # 673
0000 22                RET     
             ; FUNCTION PMC2_CMD_92 (END)

             ; FUNCTION PMC2_CMD_93 (BEGIN)
                                           ; SOURCE LINE # 675
                                           ; SOURCE LINE # 676
                                           ; SOURCE LINE # 677
0000 22                RET     
             ; FUNCTION PMC2_CMD_93 (END)

             ; FUNCTION PMC2_CMD_94 (BEGIN)
                                           ; SOURCE LINE # 679
                                           ; SOURCE LINE # 680
                                           ; SOURCE LINE # 681
0000 22                RET     
             ; FUNCTION PMC2_CMD_94 (END)

             ; FUNCTION PMC2_CMD_95 (BEGIN)
                                           ; SOURCE LINE # 683
                                           ; SOURCE LINE # 684
                                           ; SOURCE LINE # 685
0000 22                RET     
             ; FUNCTION PMC2_CMD_95 (END)

             ; FUNCTION PMC2_CMD_96 (BEGIN)
                                           ; SOURCE LINE # 687
                                           ; SOURCE LINE # 688
                                           ; SOURCE LINE # 689
0000 22                RET     
             ; FUNCTION PMC2_CMD_96 (END)

             ; FUNCTION PMC2_CMD_97 (BEGIN)
                                           ; SOURCE LINE # 691
                                           ; SOURCE LINE # 692
                                           ; SOURCE LINE # 693
0000 22                RET     
             ; FUNCTION PMC2_CMD_97 (END)

             ; FUNCTION PMC2_CMD_98 (BEGIN)
                                           ; SOURCE LINE # 695
C51 COMPILER V7.06   OEM_PMC2                                                              07/06/2010 09:59:50 PAGE 47  

                                           ; SOURCE LINE # 696
                                           ; SOURCE LINE # 697
0000 22                RET     
             ; FUNCTION PMC2_CMD_98 (END)

             ; FUNCTION PMC2_CMD_99 (BEGIN)
                                           ; SOURCE LINE # 699
                                           ; SOURCE LINE # 700
                                           ; SOURCE LINE # 701
0000 22                RET     
             ; FUNCTION PMC2_CMD_99 (END)

             ; FUNCTION PMC2_CMD_9A (BEGIN)
                                           ; SOURCE LINE # 703
                                           ; SOURCE LINE # 704
                                           ; SOURCE LINE # 705
0000 22                RET     
             ; FUNCTION PMC2_CMD_9A (END)

             ; FUNCTION PMC2_CMD_9B (BEGIN)
                                           ; SOURCE LINE # 707
                                           ; SOURCE LINE # 708
                                           ; SOURCE LINE # 709
0000 22                RET     
             ; FUNCTION PMC2_CMD_9B (END)

             ; FUNCTION PMC2_CMD_9C (BEGIN)
                                           ; SOURCE LINE # 711
                                           ; SOURCE LINE # 712
                                           ; SOURCE LINE # 713
0000 22                RET     
             ; FUNCTION PMC2_CMD_9C (END)

             ; FUNCTION PMC2_CMD_9D (BEGIN)
                                           ; SOURCE LINE # 715
                                           ; SOURCE LINE # 716
                                           ; SOURCE LINE # 717
0000 22                RET     
             ; FUNCTION PMC2_CMD_9D (END)

             ; FUNCTION PMC2_CMD_9E (BEGIN)
                                           ; SOURCE LINE # 719
                                           ; SOURCE LINE # 720
                                           ; SOURCE LINE # 721
0000 22                RET     
             ; FUNCTION PMC2_CMD_9E (END)

             ; FUNCTION PMC2_CMD_9F (BEGIN)
                                           ; SOURCE LINE # 723
                                           ; SOURCE LINE # 724
                                           ; SOURCE LINE # 725
0000 22                RET     
             ; FUNCTION PMC2_CMD_9F (END)

             ; FUNCTION PMC2_CMD_A0 (BEGIN)
                                           ; SOURCE LINE # 731
                                           ; SOURCE LINE # 732
                                           ; SOURCE LINE # 733
0000 22                RET     
             ; FUNCTION PMC2_CMD_A0 (END)

             ; FUNCTION PMC2_CMD_A1 (BEGIN)
C51 COMPILER V7.06   OEM_PMC2                                                              07/06/2010 09:59:50 PAGE 48  

                                           ; SOURCE LINE # 735
                                           ; SOURCE LINE # 736
                                           ; SOURCE LINE # 737
0000 22                RET     
             ; FUNCTION PMC2_CMD_A1 (END)

             ; FUNCTION PMC2_CMD_A2 (BEGIN)
                                           ; SOURCE LINE # 739
                                           ; SOURCE LINE # 740
                                           ; SOURCE LINE # 741
0000 22                RET     
             ; FUNCTION PMC2_CMD_A2 (END)

             ; FUNCTION PMC2_CMD_A3 (BEGIN)
                                           ; SOURCE LINE # 743
                                           ; SOURCE LINE # 744
                                           ; SOURCE LINE # 745
0000 22                RET     
             ; FUNCTION PMC2_CMD_A3 (END)

             ; FUNCTION PMC2_CMD_A4 (BEGIN)
                                           ; SOURCE LINE # 747
                                           ; SOURCE LINE # 748
                                           ; SOURCE LINE # 749
0000 22                RET     
             ; FUNCTION PMC2_CMD_A4 (END)

             ; FUNCTION PMC2_CMD_A5 (BEGIN)
                                           ; SOURCE LINE # 751
                                           ; SOURCE LINE # 752
                                           ; SOURCE LINE # 753
0000 22                RET     
             ; FUNCTION PMC2_CMD_A5 (END)

             ; FUNCTION PMC2_CMD_A6 (BEGIN)
                                           ; SOURCE LINE # 755
                                           ; SOURCE LINE # 756
                                           ; SOURCE LINE # 757
0000 22                RET     
             ; FUNCTION PMC2_CMD_A6 (END)

             ; FUNCTION PMC2_CMD_A7 (BEGIN)
                                           ; SOURCE LINE # 759
                                           ; SOURCE LINE # 760
                                           ; SOURCE LINE # 761
0000 22                RET     
             ; FUNCTION PMC2_CMD_A7 (END)

             ; FUNCTION PMC2_CMD_A8 (BEGIN)
                                           ; SOURCE LINE # 763
                                           ; SOURCE LINE # 764
                                           ; SOURCE LINE # 765
0000 22                RET     
             ; FUNCTION PMC2_CMD_A8 (END)

             ; FUNCTION PMC2_CMD_A9 (BEGIN)
                                           ; SOURCE LINE # 767
                                           ; SOURCE LINE # 768
                                           ; SOURCE LINE # 769
0000 22                RET     
             ; FUNCTION PMC2_CMD_A9 (END)

C51 COMPILER V7.06   OEM_PMC2                                                              07/06/2010 09:59:50 PAGE 49  

             ; FUNCTION PMC2_CMD_AA (BEGIN)
                                           ; SOURCE LINE # 771
                                           ; SOURCE LINE # 772
                                           ; SOURCE LINE # 773
0000 22                RET     
             ; FUNCTION PMC2_CMD_AA (END)

             ; FUNCTION PMC2_CMD_AB (BEGIN)
                                           ; SOURCE LINE # 775
                                           ; SOURCE LINE # 776
                                           ; SOURCE LINE # 777
0000 22                RET     
             ; FUNCTION PMC2_CMD_AB (END)

             ; FUNCTION PMC2_CMD_AC (BEGIN)
                                           ; SOURCE LINE # 779
                                           ; SOURCE LINE # 780
                                           ; SOURCE LINE # 781
0000 22                RET     
             ; FUNCTION PMC2_CMD_AC (END)

             ; FUNCTION PMC2_CMD_AD (BEGIN)
                                           ; SOURCE LINE # 783
                                           ; SOURCE LINE # 784
                                           ; SOURCE LINE # 785
0000 22                RET     
             ; FUNCTION PMC2_CMD_AD (END)

             ; FUNCTION PMC2_CMD_AE (BEGIN)
                                           ; SOURCE LINE # 787
                                           ; SOURCE LINE # 788
                                           ; SOURCE LINE # 789
0000 22                RET     
             ; FUNCTION PMC2_CMD_AE (END)

             ; FUNCTION PMC2_CMD_AF (BEGIN)
                                           ; SOURCE LINE # 791
                                           ; SOURCE LINE # 792
                                           ; SOURCE LINE # 793
0000 22                RET     
             ; FUNCTION PMC2_CMD_AF (END)

             ; FUNCTION PMC2_CMD_B0 (BEGIN)
                                           ; SOURCE LINE # 799
                                           ; SOURCE LINE # 800
                                           ; SOURCE LINE # 801
0000 22                RET     
             ; FUNCTION PMC2_CMD_B0 (END)

             ; FUNCTION PMC2_CMD_B1 (BEGIN)
                                           ; SOURCE LINE # 803
                                           ; SOURCE LINE # 804
                                           ; SOURCE LINE # 805
0000 22                RET     
             ; FUNCTION PMC2_CMD_B1 (END)

             ; FUNCTION PMC2_CMD_B2 (BEGIN)
                                           ; SOURCE LINE # 807
                                           ; SOURCE LINE # 808
                                           ; SOURCE LINE # 809
0000 22                RET     
             ; FUNCTION PMC2_CMD_B2 (END)
C51 COMPILER V7.06   OEM_PMC2                                                              07/06/2010 09:59:50 PAGE 50  


             ; FUNCTION PMC2_CMD_B3 (BEGIN)
                                           ; SOURCE LINE # 811
                                           ; SOURCE LINE # 812
                                           ; SOURCE LINE # 813
0000 22                RET     
             ; FUNCTION PMC2_CMD_B3 (END)

             ; FUNCTION PMC2_CMD_B4 (BEGIN)
                                           ; SOURCE LINE # 815
                                           ; SOURCE LINE # 816
                                           ; SOURCE LINE # 817
0000 22                RET     
             ; FUNCTION PMC2_CMD_B4 (END)

             ; FUNCTION PMC2_CMD_B5 (BEGIN)
                                           ; SOURCE LINE # 819
                                           ; SOURCE LINE # 820
                                           ; SOURCE LINE # 821
0000 22                RET     
             ; FUNCTION PMC2_CMD_B5 (END)

             ; FUNCTION PMC2_CMD_B6 (BEGIN)
                                           ; SOURCE LINE # 823
                                           ; SOURCE LINE # 824
                                           ; SOURCE LINE # 825
0000 22                RET     
             ; FUNCTION PMC2_CMD_B6 (END)

             ; FUNCTION PMC2_CMD_B7 (BEGIN)
                                           ; SOURCE LINE # 827
                                           ; SOURCE LINE # 828
                                           ; SOURCE LINE # 829
0000 22                RET     
             ; FUNCTION PMC2_CMD_B7 (END)

             ; FUNCTION PMC2_CMD_B8 (BEGIN)
                                           ; SOURCE LINE # 831
                                           ; SOURCE LINE # 832
                                           ; SOURCE LINE # 833
0000 22                RET     
             ; FUNCTION PMC2_CMD_B8 (END)

             ; FUNCTION PMC2_CMD_B9 (BEGIN)
                                           ; SOURCE LINE # 835
                                           ; SOURCE LINE # 836
                                           ; SOURCE LINE # 837
0000 22                RET     
             ; FUNCTION PMC2_CMD_B9 (END)

             ; FUNCTION PMC2_CMD_BA (BEGIN)
                                           ; SOURCE LINE # 839
                                           ; SOURCE LINE # 840
                                           ; SOURCE LINE # 841
0000 22                RET     
             ; FUNCTION PMC2_CMD_BA (END)

             ; FUNCTION PMC2_CMD_BB (BEGIN)
                                           ; SOURCE LINE # 843
                                           ; SOURCE LINE # 844
                                           ; SOURCE LINE # 845
0000 22                RET     
C51 COMPILER V7.06   OEM_PMC2                                                              07/06/2010 09:59:50 PAGE 51  

             ; FUNCTION PMC2_CMD_BB (END)

             ; FUNCTION PMC2_CMD_BC (BEGIN)
                                           ; SOURCE LINE # 847
                                           ; SOURCE LINE # 848
                                           ; SOURCE LINE # 849
0000 22                RET     
             ; FUNCTION PMC2_CMD_BC (END)

             ; FUNCTION PMC2_CMD_BD (BEGIN)
                                           ; SOURCE LINE # 851
                                           ; SOURCE LINE # 852
                                           ; SOURCE LINE # 853
0000 22                RET     
             ; FUNCTION PMC2_CMD_BD (END)

             ; FUNCTION PMC2_CMD_BE (BEGIN)
                                           ; SOURCE LINE # 855
                                           ; SOURCE LINE # 856
                                           ; SOURCE LINE # 857
0000 22                RET     
             ; FUNCTION PMC2_CMD_BE (END)

             ; FUNCTION PMC2_CMD_BF (BEGIN)
                                           ; SOURCE LINE # 859
                                           ; SOURCE LINE # 860
                                           ; SOURCE LINE # 861
0000 22                RET     
             ; FUNCTION PMC2_CMD_BF (END)

             ; FUNCTION PMC2_CMD_C0 (BEGIN)
                                           ; SOURCE LINE # 867
                                           ; SOURCE LINE # 868
                                           ; SOURCE LINE # 869
0000 22                RET     
             ; FUNCTION PMC2_CMD_C0 (END)

             ; FUNCTION PMC2_CMD_C1 (BEGIN)
                                           ; SOURCE LINE # 871
                                           ; SOURCE LINE # 872
                                           ; SOURCE LINE # 873
0000 22                RET     
             ; FUNCTION PMC2_CMD_C1 (END)

             ; FUNCTION PMC2_CMD_C2 (BEGIN)
                                           ; SOURCE LINE # 875
                                           ; SOURCE LINE # 876
                                           ; SOURCE LINE # 877
0000 22                RET     
             ; FUNCTION PMC2_CMD_C2 (END)

             ; FUNCTION PMC2_CMD_C3 (BEGIN)
                                           ; SOURCE LINE # 879
                                           ; SOURCE LINE # 880
                                           ; SOURCE LINE # 881
0000 22                RET     
             ; FUNCTION PMC2_CMD_C3 (END)

             ; FUNCTION PMC2_CMD_C4 (BEGIN)
                                           ; SOURCE LINE # 883
                                           ; SOURCE LINE # 884
                                           ; SOURCE LINE # 885
C51 COMPILER V7.06   OEM_PMC2                                                              07/06/2010 09:59:50 PAGE 52  

0000 22                RET     
             ; FUNCTION PMC2_CMD_C4 (END)

             ; FUNCTION PMC2_CMD_C5 (BEGIN)
                                           ; SOURCE LINE # 887
                                           ; SOURCE LINE # 888
                                           ; SOURCE LINE # 889
0000 22                RET     
             ; FUNCTION PMC2_CMD_C5 (END)

             ; FUNCTION PMC2_CMD_C6 (BEGIN)
                                           ; SOURCE LINE # 891
                                           ; SOURCE LINE # 892
                                           ; SOURCE LINE # 893
0000 22                RET     
             ; FUNCTION PMC2_CMD_C6 (END)

             ; FUNCTION PMC2_CMD_C7 (BEGIN)
                                           ; SOURCE LINE # 895
                                           ; SOURCE LINE # 896
                                           ; SOURCE LINE # 897
0000 22                RET     
             ; FUNCTION PMC2_CMD_C7 (END)

             ; FUNCTION PMC2_CMD_C8 (BEGIN)
                                           ; SOURCE LINE # 899
                                           ; SOURCE LINE # 900
                                           ; SOURCE LINE # 901
0000 22                RET     
             ; FUNCTION PMC2_CMD_C8 (END)

             ; FUNCTION PMC2_CMD_C9 (BEGIN)
                                           ; SOURCE LINE # 903
                                           ; SOURCE LINE # 904
                                           ; SOURCE LINE # 905
0000 22                RET     
             ; FUNCTION PMC2_CMD_C9 (END)

             ; FUNCTION PMC2_CMD_CA (BEGIN)
                                           ; SOURCE LINE # 907
                                           ; SOURCE LINE # 908
                                           ; SOURCE LINE # 909
0000 22                RET     
             ; FUNCTION PMC2_CMD_CA (END)

             ; FUNCTION PMC2_CMD_CB (BEGIN)
                                           ; SOURCE LINE # 911
                                           ; SOURCE LINE # 912
                                           ; SOURCE LINE # 913
0000 22                RET     
             ; FUNCTION PMC2_CMD_CB (END)

             ; FUNCTION PMC2_CMD_CC (BEGIN)
                                           ; SOURCE LINE # 915
                                           ; SOURCE LINE # 916
                                           ; SOURCE LINE # 917
0000 22                RET     
             ; FUNCTION PMC2_CMD_CC (END)

             ; FUNCTION PMC2_CMD_CD (BEGIN)
                                           ; SOURCE LINE # 919
                                           ; SOURCE LINE # 920
C51 COMPILER V7.06   OEM_PMC2                                                              07/06/2010 09:59:50 PAGE 53  

                                           ; SOURCE LINE # 921
0000 22                RET     
             ; FUNCTION PMC2_CMD_CD (END)

             ; FUNCTION PMC2_CMD_CE (BEGIN)
                                           ; SOURCE LINE # 923
                                           ; SOURCE LINE # 924
                                           ; SOURCE LINE # 925
0000 22                RET     
             ; FUNCTION PMC2_CMD_CE (END)

             ; FUNCTION PMC2_CMD_CF (BEGIN)
                                           ; SOURCE LINE # 927
                                           ; SOURCE LINE # 928
                                           ; SOURCE LINE # 929
0000 22                RET     
             ; FUNCTION PMC2_CMD_CF (END)

             ; FUNCTION PMC2_CMD_D0 (BEGIN)
                                           ; SOURCE LINE # 935
                                           ; SOURCE LINE # 936
                                           ; SOURCE LINE # 937
0000 22                RET     
             ; FUNCTION PMC2_CMD_D0 (END)

             ; FUNCTION PMC2_CMD_D1 (BEGIN)
                                           ; SOURCE LINE # 939
                                           ; SOURCE LINE # 940
                                           ; SOURCE LINE # 941
0000 22                RET     
             ; FUNCTION PMC2_CMD_D1 (END)

             ; FUNCTION PMC2_CMD_D2 (BEGIN)
                                           ; SOURCE LINE # 943
                                           ; SOURCE LINE # 944
                                           ; SOURCE LINE # 945
0000 22                RET     
             ; FUNCTION PMC2_CMD_D2 (END)

             ; FUNCTION PMC2_CMD_D3 (BEGIN)
                                           ; SOURCE LINE # 947
                                           ; SOURCE LINE # 948
                                           ; SOURCE LINE # 949
0000 22                RET     
             ; FUNCTION PMC2_CMD_D3 (END)

             ; FUNCTION PMC2_CMD_D4 (BEGIN)
                                           ; SOURCE LINE # 951
                                           ; SOURCE LINE # 952
                                           ; SOURCE LINE # 953
0000 22                RET     
             ; FUNCTION PMC2_CMD_D4 (END)

             ; FUNCTION PMC2_CMD_D5 (BEGIN)
                                           ; SOURCE LINE # 955
                                           ; SOURCE LINE # 956
                                           ; SOURCE LINE # 957
0000 22                RET     
             ; FUNCTION PMC2_CMD_D5 (END)

             ; FUNCTION PMC2_CMD_D6 (BEGIN)
                                           ; SOURCE LINE # 959
C51 COMPILER V7.06   OEM_PMC2                                                              07/06/2010 09:59:50 PAGE 54  

                                           ; SOURCE LINE # 960
                                           ; SOURCE LINE # 961
0000 22                RET     
             ; FUNCTION PMC2_CMD_D6 (END)

             ; FUNCTION PMC2_CMD_D7 (BEGIN)
                                           ; SOURCE LINE # 963
                                           ; SOURCE LINE # 964
                                           ; SOURCE LINE # 965
0000 22                RET     
             ; FUNCTION PMC2_CMD_D7 (END)

             ; FUNCTION PMC2_CMD_D8 (BEGIN)
                                           ; SOURCE LINE # 967
                                           ; SOURCE LINE # 968
                                           ; SOURCE LINE # 969
0000 22                RET     
             ; FUNCTION PMC2_CMD_D8 (END)

             ; FUNCTION PMC2_CMD_D9 (BEGIN)
                                           ; SOURCE LINE # 971
                                           ; SOURCE LINE # 972
                                           ; SOURCE LINE # 973
0000 22                RET     
             ; FUNCTION PMC2_CMD_D9 (END)

             ; FUNCTION PMC2_CMD_DA (BEGIN)
                                           ; SOURCE LINE # 975
                                           ; SOURCE LINE # 976
                                           ; SOURCE LINE # 977
0000 22                RET     
             ; FUNCTION PMC2_CMD_DA (END)

             ; FUNCTION PMC2_CMD_DB (BEGIN)
                                           ; SOURCE LINE # 979
                                           ; SOURCE LINE # 980
                                           ; SOURCE LINE # 981
0000 22                RET     
             ; FUNCTION PMC2_CMD_DB (END)

             ; FUNCTION PMC2_CMD_DC (BEGIN)
                                           ; SOURCE LINE # 983
                                           ; SOURCE LINE # 984
                                           ; SOURCE LINE # 985
0000 22                RET     
             ; FUNCTION PMC2_CMD_DC (END)

             ; FUNCTION PMC2_CMD_DD (BEGIN)
                                           ; SOURCE LINE # 987
                                           ; SOURCE LINE # 988
                                           ; SOURCE LINE # 989
0000 22                RET     
             ; FUNCTION PMC2_CMD_DD (END)

             ; FUNCTION PMC2_CMD_DE (BEGIN)
                                           ; SOURCE LINE # 991
                                           ; SOURCE LINE # 992
                                           ; SOURCE LINE # 993
0000 22                RET     
             ; FUNCTION PMC2_CMD_DE (END)

             ; FUNCTION PMC2_CMD_DF (BEGIN)
C51 COMPILER V7.06   OEM_PMC2                                                              07/06/2010 09:59:50 PAGE 55  

                                           ; SOURCE LINE # 995
                                           ; SOURCE LINE # 996
                                           ; SOURCE LINE # 997
0000 22                RET     
             ; FUNCTION PMC2_CMD_DF (END)

             ; FUNCTION PMC2_CMD_E0 (BEGIN)
                                           ; SOURCE LINE # 1003
                                           ; SOURCE LINE # 1004
                                           ; SOURCE LINE # 1005
0000 22                RET     
             ; FUNCTION PMC2_CMD_E0 (END)

             ; FUNCTION PMC2_CMD_E1 (BEGIN)
                                           ; SOURCE LINE # 1007
                                           ; SOURCE LINE # 1008
                                           ; SOURCE LINE # 1009
0000 22                RET     
             ; FUNCTION PMC2_CMD_E1 (END)

             ; FUNCTION PMC2_CMD_E2 (BEGIN)
                                           ; SOURCE LINE # 1011
                                           ; SOURCE LINE # 1012
                                           ; SOURCE LINE # 1013
0000 22                RET     
             ; FUNCTION PMC2_CMD_E2 (END)

             ; FUNCTION PMC2_CMD_E3 (BEGIN)
                                           ; SOURCE LINE # 1015
                                           ; SOURCE LINE # 1016
                                           ; SOURCE LINE # 1017
0000 22                RET     
             ; FUNCTION PMC2_CMD_E3 (END)

             ; FUNCTION PMC2_CMD_E4 (BEGIN)
                                           ; SOURCE LINE # 1019
                                           ; SOURCE LINE # 1020
                                           ; SOURCE LINE # 1021
0000 22                RET     
             ; FUNCTION PMC2_CMD_E4 (END)

             ; FUNCTION PMC2_CMD_E5 (BEGIN)
                                           ; SOURCE LINE # 1023
                                           ; SOURCE LINE # 1024
                                           ; SOURCE LINE # 1025
0000 22                RET     
             ; FUNCTION PMC2_CMD_E5 (END)

             ; FUNCTION PMC2_CMD_E6 (BEGIN)
                                           ; SOURCE LINE # 1027
                                           ; SOURCE LINE # 1028
                                           ; SOURCE LINE # 1029
0000 22                RET     
             ; FUNCTION PMC2_CMD_E6 (END)

             ; FUNCTION PMC2_CMD_E7 (BEGIN)
                                           ; SOURCE LINE # 1031
                                           ; SOURCE LINE # 1032
                                           ; SOURCE LINE # 1033
0000 22                RET     
             ; FUNCTION PMC2_CMD_E7 (END)

C51 COMPILER V7.06   OEM_PMC2                                                              07/06/2010 09:59:50 PAGE 56  

             ; FUNCTION PMC2_CMD_E8 (BEGIN)
                                           ; SOURCE LINE # 1035
                                           ; SOURCE LINE # 1036
                                           ; SOURCE LINE # 1037
0000 22                RET     
             ; FUNCTION PMC2_CMD_E8 (END)

             ; FUNCTION PMC2_CMD_E9 (BEGIN)
                                           ; SOURCE LINE # 1039
                                           ; SOURCE LINE # 1040
                                           ; SOURCE LINE # 1041
0000 22                RET     
             ; FUNCTION PMC2_CMD_E9 (END)

             ; FUNCTION PMC2_CMD_EA (BEGIN)
                                           ; SOURCE LINE # 1043
                                           ; SOURCE LINE # 1044
                                           ; SOURCE LINE # 1045
0000 22                RET     
             ; FUNCTION PMC2_CMD_EA (END)

             ; FUNCTION PMC2_CMD_EB (BEGIN)
                                           ; SOURCE LINE # 1047
                                           ; SOURCE LINE # 1048
                                           ; SOURCE LINE # 1049
0000 22                RET     
             ; FUNCTION PMC2_CMD_EB (END)

             ; FUNCTION PMC2_CMD_EC (BEGIN)
                                           ; SOURCE LINE # 1051
                                           ; SOURCE LINE # 1052
                                           ; SOURCE LINE # 1053
0000 22                RET     
             ; FUNCTION PMC2_CMD_EC (END)

             ; FUNCTION PMC2_CMD_ED (BEGIN)
                                           ; SOURCE LINE # 1055
                                           ; SOURCE LINE # 1056
                                           ; SOURCE LINE # 1057
0000 22                RET     
             ; FUNCTION PMC2_CMD_ED (END)

             ; FUNCTION PMC2_CMD_EE (BEGIN)
                                           ; SOURCE LINE # 1059
                                           ; SOURCE LINE # 1060
                                           ; SOURCE LINE # 1061
0000 22                RET     
             ; FUNCTION PMC2_CMD_EE (END)

             ; FUNCTION PMC2_CMD_EF (BEGIN)
                                           ; SOURCE LINE # 1063
                                           ; SOURCE LINE # 1064
                                           ; SOURCE LINE # 1065
0000 22                RET     
             ; FUNCTION PMC2_CMD_EF (END)

             ; FUNCTION PMC2_CMD_F0 (BEGIN)
                                           ; SOURCE LINE # 1071
                                           ; SOURCE LINE # 1072
                                           ; SOURCE LINE # 1073
0000 22                RET     
             ; FUNCTION PMC2_CMD_F0 (END)
C51 COMPILER V7.06   OEM_PMC2                                                              07/06/2010 09:59:50 PAGE 57  


             ; FUNCTION PMC2_CMD_F1 (BEGIN)
                                           ; SOURCE LINE # 1075
                                           ; SOURCE LINE # 1076
                                           ; SOURCE LINE # 1077
0000 22                RET     
             ; FUNCTION PMC2_CMD_F1 (END)

             ; FUNCTION PMC2_CMD_F2 (BEGIN)
                                           ; SOURCE LINE # 1079
                                           ; SOURCE LINE # 1080
                                           ; SOURCE LINE # 1081
0000 22                RET     
             ; FUNCTION PMC2_CMD_F2 (END)

             ; FUNCTION PMC2_CMD_F3 (BEGIN)
                                           ; SOURCE LINE # 1083
                                           ; SOURCE LINE # 1084
                                           ; SOURCE LINE # 1085
0000 22                RET     
             ; FUNCTION PMC2_CMD_F3 (END)

             ; FUNCTION PMC2_CMD_F4 (BEGIN)
                                           ; SOURCE LINE # 1087
                                           ; SOURCE LINE # 1088
                                           ; SOURCE LINE # 1089
0000 22                RET     
             ; FUNCTION PMC2_CMD_F4 (END)

             ; FUNCTION PMC2_CMD_F5 (BEGIN)
                                           ; SOURCE LINE # 1091
                                           ; SOURCE LINE # 1092
                                           ; SOURCE LINE # 1093
0000 22                RET     
             ; FUNCTION PMC2_CMD_F5 (END)

             ; FUNCTION PMC2_CMD_F6 (BEGIN)
                                           ; SOURCE LINE # 1095
                                           ; SOURCE LINE # 1096
                                           ; SOURCE LINE # 1097
0000 22                RET     
             ; FUNCTION PMC2_CMD_F6 (END)

             ; FUNCTION PMC2_CMD_F7 (BEGIN)
                                           ; SOURCE LINE # 1099
                                           ; SOURCE LINE # 1100
                                           ; SOURCE LINE # 1101
0000 22                RET     
             ; FUNCTION PMC2_CMD_F7 (END)

             ; FUNCTION PMC2_CMD_F8 (BEGIN)
                                           ; SOURCE LINE # 1103
                                           ; SOURCE LINE # 1104
                                           ; SOURCE LINE # 1105
0000 22                RET     
             ; FUNCTION PMC2_CMD_F8 (END)

             ; FUNCTION PMC2_CMD_F9 (BEGIN)
                                           ; SOURCE LINE # 1107
                                           ; SOURCE LINE # 1108
                                           ; SOURCE LINE # 1109
0000 22                RET     
C51 COMPILER V7.06   OEM_PMC2                                                              07/06/2010 09:59:50 PAGE 58  

             ; FUNCTION PMC2_CMD_F9 (END)

             ; FUNCTION PMC2_CMD_FA (BEGIN)
                                           ; SOURCE LINE # 1111
                                           ; SOURCE LINE # 1112
                                           ; SOURCE LINE # 1113
0000 22                RET     
             ; FUNCTION PMC2_CMD_FA (END)

             ; FUNCTION PMC2_CMD_FB (BEGIN)
                                           ; SOURCE LINE # 1115
                                           ; SOURCE LINE # 1116
                                           ; SOURCE LINE # 1117
0000 22                RET     
             ; FUNCTION PMC2_CMD_FB (END)

             ; FUNCTION PMC2_CMD_FC (BEGIN)
                                           ; SOURCE LINE # 1119
                                           ; SOURCE LINE # 1120
                                           ; SOURCE LINE # 1121
0000 22                RET     
             ; FUNCTION PMC2_CMD_FC (END)

             ; FUNCTION PMC2_CMD_FD (BEGIN)
                                           ; SOURCE LINE # 1123
                                           ; SOURCE LINE # 1124
                                           ; SOURCE LINE # 1125
0000 22                RET     
             ; FUNCTION PMC2_CMD_FD (END)

             ; FUNCTION PMC2_CMD_FE (BEGIN)
                                           ; SOURCE LINE # 1127
                                           ; SOURCE LINE # 1128
                                           ; SOURCE LINE # 1129
0000 22                RET     
             ; FUNCTION PMC2_CMD_FE (END)

             ; FUNCTION PMC2_CMD_FF (BEGIN)
                                           ; SOURCE LINE # 1131
                                           ; SOURCE LINE # 1132
                                           ; SOURCE LINE # 1133
0000 22                RET     
             ; FUNCTION PMC2_CMD_FF (END)

             ; FUNCTION PMC2_Cmd_0X (BEGIN)
                                           ; SOURCE LINE # 1490
                                           ; SOURCE LINE # 1491
                                           ; SOURCE LINE # 1493
0000 E500        E     MOV     A,PM2Cmd
0002 540F              ANL     A,#0FH
0004 25E0              ADD     A,ACC
0006 2400        R     ADD     A,#LOW PMC2Cmd0X_Table
0008 F582              MOV     DPL,A
000A E4                CLR     A
000B 3400        R     ADDC    A,#HIGH PMC2Cmd0X_Table
000D F583              MOV     DPH,A
000F E4                CLR     A
0010 93                MOVC    A,@A+DPTR
0011 FE                MOV     R6,A
0012 7401              MOV     A,#01H
0014 93                MOVC    A,@A+DPTR
0015 AA06              MOV     R2,AR6
C51 COMPILER V7.06   OEM_PMC2                                                              07/06/2010 09:59:50 PAGE 59  

0017 F9                MOV     R1,A
0018 020000      E     LJMP    ?C?ICALL
             ; FUNCTION PMC2_Cmd_0X (END)

             ; FUNCTION PMC2_Cmd_1X (BEGIN)
                                           ; SOURCE LINE # 1497
                                           ; SOURCE LINE # 1498
                                           ; SOURCE LINE # 1500
0000 E500        E     MOV     A,PM2Cmd
0002 540F              ANL     A,#0FH
0004 25E0              ADD     A,ACC
0006 2400        R     ADD     A,#LOW PMC2Cmd1X_Table
0008 F582              MOV     DPL,A
000A E4                CLR     A
000B 3400        R     ADDC    A,#HIGH PMC2Cmd1X_Table
000D F583              MOV     DPH,A
000F E4                CLR     A
0010 93                MOVC    A,@A+DPTR
0011 FE                MOV     R6,A
0012 7401              MOV     A,#01H
0014 93                MOVC    A,@A+DPTR
0015 AA06              MOV     R2,AR6
0017 F9                MOV     R1,A
0018 020000      E     LJMP    ?C?ICALL
             ; FUNCTION PMC2_Cmd_1X (END)

             ; FUNCTION PMC2_Cmd_2X (BEGIN)
                                           ; SOURCE LINE # 1504
                                           ; SOURCE LINE # 1505
                                           ; SOURCE LINE # 1507
0000 E500        E     MOV     A,PM2Cmd
0002 540F              ANL     A,#0FH
0004 25E0              ADD     A,ACC
0006 2400        R     ADD     A,#LOW PMC2Cmd2X_Table
0008 F582              MOV     DPL,A
000A E4                CLR     A
000B 3400        R     ADDC    A,#HIGH PMC2Cmd2X_Table
000D F583              MOV     DPH,A
000F E4                CLR     A
0010 93                MOVC    A,@A+DPTR
0011 FE                MOV     R6,A
0012 7401              MOV     A,#01H
0014 93                MOVC    A,@A+DPTR
0015 AA06              MOV     R2,AR6
0017 F9                MOV     R1,A
0018 020000      E     LJMP    ?C?ICALL
             ; FUNCTION PMC2_Cmd_2X (END)

             ; FUNCTION PMC2_Cmd_3X (BEGIN)
                                           ; SOURCE LINE # 1511
                                           ; SOURCE LINE # 1512
                                           ; SOURCE LINE # 1514
0000 E500        E     MOV     A,PM2Cmd
0002 540F              ANL     A,#0FH
0004 25E0              ADD     A,ACC
0006 2400        R     ADD     A,#LOW PMC2Cmd3X_Table
0008 F582              MOV     DPL,A
000A E4                CLR     A
000B 3400        R     ADDC    A,#HIGH PMC2Cmd3X_Table
000D F583              MOV     DPH,A
000F E4                CLR     A
0010 93                MOVC    A,@A+DPTR
C51 COMPILER V7.06   OEM_PMC2                                                              07/06/2010 09:59:50 PAGE 60  

0011 FE                MOV     R6,A
0012 7401              MOV     A,#01H
0014 93                MOVC    A,@A+DPTR
0015 AA06              MOV     R2,AR6
0017 F9                MOV     R1,A
0018 020000      E     LJMP    ?C?ICALL
             ; FUNCTION PMC2_Cmd_3X (END)

             ; FUNCTION PMC2_Cmd_4X (BEGIN)
                                           ; SOURCE LINE # 1518
                                           ; SOURCE LINE # 1519
                                           ; SOURCE LINE # 1521
0000 E500        E     MOV     A,PM2Cmd
0002 540F              ANL     A,#0FH
0004 25E0              ADD     A,ACC
0006 2400        R     ADD     A,#LOW PMC2Cmd4X_Table
0008 F582              MOV     DPL,A
000A E4                CLR     A
000B 3400        R     ADDC    A,#HIGH PMC2Cmd4X_Table
000D F583              MOV     DPH,A
000F E4                CLR     A
0010 93                MOVC    A,@A+DPTR
0011 FE                MOV     R6,A
0012 7401              MOV     A,#01H
0014 93                MOVC    A,@A+DPTR
0015 AA06              MOV     R2,AR6
0017 F9                MOV     R1,A
0018 020000      E     LJMP    ?C?ICALL
             ; FUNCTION PMC2_Cmd_4X (END)

             ; FUNCTION PMC2_Cmd_5X (BEGIN)
                                           ; SOURCE LINE # 1525
                                           ; SOURCE LINE # 1526
                                           ; SOURCE LINE # 1528
0000 E500        E     MOV     A,PM2Cmd
0002 540F              ANL     A,#0FH
0004 25E0              ADD     A,ACC
0006 2400        R     ADD     A,#LOW PMC2Cmd5X_Table
0008 F582              MOV     DPL,A
000A E4                CLR     A
000B 3400        R     ADDC    A,#HIGH PMC2Cmd5X_Table
000D F583              MOV     DPH,A
000F E4                CLR     A
0010 93                MOVC    A,@A+DPTR
0011 FE                MOV     R6,A
0012 7401              MOV     A,#01H
0014 93                MOVC    A,@A+DPTR
0015 AA06              MOV     R2,AR6
0017 F9                MOV     R1,A
0018 020000      E     LJMP    ?C?ICALL
             ; FUNCTION PMC2_Cmd_5X (END)

             ; FUNCTION PMC2_Cmd_6X (BEGIN)
                                           ; SOURCE LINE # 1532
                                           ; SOURCE LINE # 1533
                                           ; SOURCE LINE # 1535
0000 E500        E     MOV     A,PM2Cmd
0002 540F              ANL     A,#0FH
0004 25E0              ADD     A,ACC
0006 2400        R     ADD     A,#LOW PMC2Cmd6X_Table
0008 F582              MOV     DPL,A
000A E4                CLR     A
C51 COMPILER V7.06   OEM_PMC2                                                              07/06/2010 09:59:50 PAGE 61  

000B 3400        R     ADDC    A,#HIGH PMC2Cmd6X_Table
000D F583              MOV     DPH,A
000F E4                CLR     A
0010 93                MOVC    A,@A+DPTR
0011 FE                MOV     R6,A
0012 7401              MOV     A,#01H
0014 93                MOVC    A,@A+DPTR
0015 AA06              MOV     R2,AR6
0017 F9                MOV     R1,A
0018 020000      E     LJMP    ?C?ICALL
             ; FUNCTION PMC2_Cmd_6X (END)

             ; FUNCTION PMC2_Cmd_7X (BEGIN)
                                           ; SOURCE LINE # 1539
                                           ; SOURCE LINE # 1540
                                           ; SOURCE LINE # 1542
0000 E500        E     MOV     A,PM2Cmd
0002 540F              ANL     A,#0FH
0004 25E0              ADD     A,ACC
0006 2400        R     ADD     A,#LOW PMC2Cmd7X_Table
0008 F582              MOV     DPL,A
000A E4                CLR     A
000B 3400        R     ADDC    A,#HIGH PMC2Cmd7X_Table
000D F583              MOV     DPH,A
000F E4                CLR     A
0010 93                MOVC    A,@A+DPTR
0011 FE                MOV     R6,A
0012 7401              MOV     A,#01H
0014 93                MOVC    A,@A+DPTR
0015 AA06              MOV     R2,AR6
0017 F9                MOV     R1,A
0018 020000      E     LJMP    ?C?ICALL
             ; FUNCTION PMC2_Cmd_7X (END)

             ; FUNCTION PMC2_Cmd_8X (BEGIN)
                                           ; SOURCE LINE # 1546
                                           ; SOURCE LINE # 1547
                                           ; SOURCE LINE # 1549
0000 E500        E     MOV     A,PM2Cmd
0002 540F              ANL     A,#0FH
0004 25E0              ADD     A,ACC
0006 2400        R     ADD     A,#LOW PMC2Cmd8X_Table
0008 F582              MOV     DPL,A
000A E4                CLR     A
000B 3400        R     ADDC    A,#HIGH PMC2Cmd8X_Table
000D F583              MOV     DPH,A
000F E4                CLR     A
0010 93                MOVC    A,@A+DPTR
0011 FE                MOV     R6,A
0012 7401              MOV     A,#01H
0014 93                MOVC    A,@A+DPTR
0015 AA06              MOV     R2,AR6
0017 F9                MOV     R1,A
0018 020000      E     LJMP    ?C?ICALL
             ; FUNCTION PMC2_Cmd_8X (END)

             ; FUNCTION PMC2_Cmd_9X (BEGIN)
                                           ; SOURCE LINE # 1553
                                           ; SOURCE LINE # 1554
                                           ; SOURCE LINE # 1556
0000 E500        E     MOV     A,PM2Cmd
0002 540F              ANL     A,#0FH
C51 COMPILER V7.06   OEM_PMC2                                                              07/06/2010 09:59:50 PAGE 62  

0004 25E0              ADD     A,ACC
0006 2400        R     ADD     A,#LOW PMC2Cmd8X_Table
0008 F582              MOV     DPL,A
000A E4                CLR     A
000B 3400        R     ADDC    A,#HIGH PMC2Cmd8X_Table
000D F583              MOV     DPH,A
000F E4                CLR     A
0010 93                MOVC    A,@A+DPTR
0011 FE                MOV     R6,A
0012 7401              MOV     A,#01H
0014 93                MOVC    A,@A+DPTR
0015 AA06              MOV     R2,AR6
0017 F9                MOV     R1,A
0018 020000      E     LJMP    ?C?ICALL
             ; FUNCTION PMC2_Cmd_9X (END)

             ; FUNCTION PMC2_Cmd_AX (BEGIN)
                                           ; SOURCE LINE # 1560
                                           ; SOURCE LINE # 1561
                                           ; SOURCE LINE # 1563
0000 E500        E     MOV     A,PM2Cmd
0002 540F              ANL     A,#0FH
0004 25E0              ADD     A,ACC
0006 2400        R     ADD     A,#LOW PMC2CmdAX_Table
0008 F582              MOV     DPL,A
000A E4                CLR     A
000B 3400        R     ADDC    A,#HIGH PMC2CmdAX_Table
000D F583              MOV     DPH,A
000F E4                CLR     A
0010 93                MOVC    A,@A+DPTR
0011 FE                MOV     R6,A
0012 7401              MOV     A,#01H
0014 93                MOVC    A,@A+DPTR
0015 AA06              MOV     R2,AR6
0017 F9                MOV     R1,A
0018 020000      E     LJMP    ?C?ICALL
             ; FUNCTION PMC2_Cmd_AX (END)

             ; FUNCTION PMC2_Cmd_BX (BEGIN)
                                           ; SOURCE LINE # 1567
                                           ; SOURCE LINE # 1568
                                           ; SOURCE LINE # 1570
0000 E500        E     MOV     A,PM2Cmd
0002 540F              ANL     A,#0FH
0004 25E0              ADD     A,ACC
0006 2400        R     ADD     A,#LOW PMC2CmdBX_Table
0008 F582              MOV     DPL,A
000A E4                CLR     A
000B 3400        R     ADDC    A,#HIGH PMC2CmdBX_Table
000D F583              MOV     DPH,A
000F E4                CLR     A
0010 93                MOVC    A,@A+DPTR
0011 FE                MOV     R6,A
0012 7401              MOV     A,#01H
0014 93                MOVC    A,@A+DPTR
0015 AA06              MOV     R2,AR6
0017 F9                MOV     R1,A
0018 020000      E     LJMP    ?C?ICALL
             ; FUNCTION PMC2_Cmd_BX (END)

             ; FUNCTION PMC2_Cmd_CX (BEGIN)
                                           ; SOURCE LINE # 1574
C51 COMPILER V7.06   OEM_PMC2                                                              07/06/2010 09:59:50 PAGE 63  

                                           ; SOURCE LINE # 1575
                                           ; SOURCE LINE # 1577
0000 E500        E     MOV     A,PM2Cmd
0002 540F              ANL     A,#0FH
0004 25E0              ADD     A,ACC
0006 2400        R     ADD     A,#LOW PMC2CmdCX_Table
0008 F582              MOV     DPL,A
000A E4                CLR     A
000B 3400        R     ADDC    A,#HIGH PMC2CmdCX_Table
000D F583              MOV     DPH,A
000F E4                CLR     A
0010 93                MOVC    A,@A+DPTR
0011 FE                MOV     R6,A
0012 7401              MOV     A,#01H
0014 93                MOVC    A,@A+DPTR
0015 AA06              MOV     R2,AR6
0017 F9                MOV     R1,A
0018 020000      E     LJMP    ?C?ICALL
             ; FUNCTION PMC2_Cmd_CX (END)

             ; FUNCTION PMC2_Cmd_DX (BEGIN)
                                           ; SOURCE LINE # 1581
                                           ; SOURCE LINE # 1582
                                           ; SOURCE LINE # 1584
0000 E500        E     MOV     A,PM2Cmd
0002 540F              ANL     A,#0FH
0004 25E0              ADD     A,ACC
0006 2400        R     ADD     A,#LOW PMC2CmdDX_Table
0008 F582              MOV     DPL,A
000A E4                CLR     A
000B 3400        R     ADDC    A,#HIGH PMC2CmdDX_Table
000D F583              MOV     DPH,A
000F E4                CLR     A
0010 93                MOVC    A,@A+DPTR
0011 FE                MOV     R6,A
0012 7401              MOV     A,#01H
0014 93                MOVC    A,@A+DPTR
0015 AA06              MOV     R2,AR6
0017 F9                MOV     R1,A
0018 020000      E     LJMP    ?C?ICALL
             ; FUNCTION PMC2_Cmd_DX (END)

             ; FUNCTION PMC2_Cmd_EX (BEGIN)
                                           ; SOURCE LINE # 1588
                                           ; SOURCE LINE # 1589
                                           ; SOURCE LINE # 1591
0000 E500        E     MOV     A,PM2Cmd
0002 540F              ANL     A,#0FH
0004 25E0              ADD     A,ACC
0006 2400        R     ADD     A,#LOW PMC2CmdEX_Table
0008 F582              MOV     DPL,A
000A E4                CLR     A
000B 3400        R     ADDC    A,#HIGH PMC2CmdEX_Table
000D F583              MOV     DPH,A
000F E4                CLR     A
0010 93                MOVC    A,@A+DPTR
0011 FE                MOV     R6,A
0012 7401              MOV     A,#01H
0014 93                MOVC    A,@A+DPTR
0015 AA06              MOV     R2,AR6
0017 F9                MOV     R1,A
0018 020000      E     LJMP    ?C?ICALL
C51 COMPILER V7.06   OEM_PMC2                                                              07/06/2010 09:59:50 PAGE 64  

             ; FUNCTION PMC2_Cmd_EX (END)

             ; FUNCTION PMC2_Cmd_FX (BEGIN)
                                           ; SOURCE LINE # 1595
                                           ; SOURCE LINE # 1596
                                           ; SOURCE LINE # 1598
0000 E500        E     MOV     A,PM2Cmd
0002 540F              ANL     A,#0FH
0004 25E0              ADD     A,ACC
0006 2400        R     ADD     A,#LOW PMC2CmdFX_Table
0008 F582              MOV     DPL,A
000A E4                CLR     A
000B 3400        R     ADDC    A,#HIGH PMC2CmdFX_Table
000D F583              MOV     DPH,A
000F E4                CLR     A
0010 93                MOVC    A,@A+DPTR
0011 FE                MOV     R6,A
0012 7401              MOV     A,#01H
0014 93                MOVC    A,@A+DPTR
0015 AA06              MOV     R2,AR6
0017 F9                MOV     R1,A
0018 020000      E     LJMP    ?C?ICALL
             ; FUNCTION PMC2_Cmd_FX (END)

             ; FUNCTION SetGetPortPM2Data (BEGIN)
                                           ; SOURCE LINE # 1626
                                           ; SOURCE LINE # 1627
                                           ; SOURCE LINE # 1628
0000 E500        E     MOV     A,PM2Step
0002 7005              JNZ     ?C0274
                                           ; SOURCE LINE # 1629
                                           ; SOURCE LINE # 1630
0004 750001      E     MOV     PM2Step,#01H
                                           ; SOURCE LINE # 1631
0007 C3                CLR     C
0008 22                RET     
                                           ; SOURCE LINE # 1632
0009         ?C0274:
                                           ; SOURCE LINE # 1634
                                           ; SOURCE LINE # 1635
0009 E4                CLR     A
000A F500        E     MOV     PM2Step,A
                                           ; SOURCE LINE # 1636
000C D3                SETB    C
                                           ; SOURCE LINE # 1637
                                           ; SOURCE LINE # 1639
000D         ?C0275:
000D 22                RET     
             ; FUNCTION SetGetPortPM2Data (END)

             ; FUNCTION OEM_GetPortPM2Data (BEGIN)
                                           ; SOURCE LINE # 1645
                                           ; SOURCE LINE # 1646
                                           ; SOURCE LINE # 1649
0000 900000      R     MOV     DPTR,#iLOOP
0003 7402              MOV     A,#02H
0005 F0                MOVX    @DPTR,A
0006 A3                INC     DPTR
0007 E4                CLR     A
0008 F0                MOVX    @DPTR,A
0009         ?C0279:
                                           ; SOURCE LINE # 1652
C51 COMPILER V7.06   OEM_PMC2                                                              07/06/2010 09:59:50 PAGE 65  

                                           ; SOURCE LINE # 1653
0009 901510            MOV     DPTR,#01510H
000C E0                MOVX    A,@DPTR
000D 30E110            JNB     ACC.1,?C0280
                                           ; SOURCE LINE # 1654
                                           ; SOURCE LINE # 1655
0010 E0                MOVX    A,@DPTR
0011 30E303            JNB     ACC.3,?C0281
                                           ; SOURCE LINE # 1656
                                           ; SOURCE LINE # 1657
0014 7F00              MOV     R7,#00H
0016 22                RET     
                                           ; SOURCE LINE # 1658
0017         ?C0281:
                                           ; SOURCE LINE # 1660
                                           ; SOURCE LINE # 1661
0017 901514            MOV     DPTR,#01514H
001A E0                MOVX    A,@DPTR
001B F500        E     MOV     PM2Data,A
                                           ; SOURCE LINE # 1663
001D         ?C0284:
                                           ; SOURCE LINE # 1666
001D 7F01              MOV     R7,#01H
001F 22                RET     
                                           ; SOURCE LINE # 1667
                                           ; SOURCE LINE # 1668
0020         ?C0280:
                                           ; SOURCE LINE # 1670
0020 900000      R     MOV     DPTR,#iLOOP
0023 74FF              MOV     A,#0FFH
0025 F5F0              MOV     B,A
0027 120000      E     LCALL   ?C?IILDX
                                           ; SOURCE LINE # 1671
                                           ; SOURCE LINE # 1672
002A 900000      R     MOV     DPTR,#iLOOP
002D E0                MOVX    A,@DPTR
002E 7002              JNZ     ?C0295
0030 A3                INC     DPTR
0031 E0                MOVX    A,@DPTR
0032         ?C0295:
0032 70D5              JNZ     ?C0279
                                           ; SOURCE LINE # 1674
0034 FF                MOV     R7,A
                                           ; SOURCE LINE # 1676
0035         ?C0282:
0035 22                RET     
             ; FUNCTION OEM_GetPortPM2Data (END)

             ; FUNCTION Service_PCI3 (BEGIN)
                                           ; SOURCE LINE # 1680
                                           ; SOURCE LINE # 1681
                                           ; SOURCE LINE # 1682
0000 901510            MOV     DPTR,#01510H
0003 E0                MOVX    A,@DPTR
0004 30E30B            JNB     ACC.3,?C0285
                                           ; SOURCE LINE # 1683
                                           ; SOURCE LINE # 1684
0007 901514            MOV     DPTR,#01514H
000A E0                MOVX    A,@DPTR
000B F500        E     MOV     PM2Cmd,A
                                           ; SOURCE LINE # 1685
000D E4                CLR     A
C51 COMPILER V7.06   OEM_PMC2                                                              07/06/2010 09:59:50 PAGE 66  

000E F500        E     MOV     PM2Step,A
                                           ; SOURCE LINE # 1687
0010         ?C0286:
                                           ; SOURCE LINE # 1689
                                           ; SOURCE LINE # 1690
0010 800A              SJMP    ?C0296
0012         ?C0285:
                                           ; SOURCE LINE # 1692
                                           ; SOURCE LINE # 1693
0012 901514            MOV     DPTR,#01514H
0015 E0                MOVX    A,@DPTR
0016 F500        E     MOV     PM2Data,A
                                           ; SOURCE LINE # 1694
0018 E500        E     MOV     A,PM2Step
001A 601C              JZ      ?C0292
                                           ; SOURCE LINE # 1695
                                           ; SOURCE LINE # 1697
001C         ?C0289:
                                           ; SOURCE LINE # 1700
001C         ?C0296:
001C E500        E     MOV     A,PM2Cmd
001E C4                SWAP    A
001F 540F              ANL     A,#0FH
0021 25E0              ADD     A,ACC
0023 2400        R     ADD     A,#LOW Port6C_Table
0025 F582              MOV     DPL,A
0027 E4                CLR     A
0028 3400        R     ADDC    A,#HIGH Port6C_Table
002A F583              MOV     DPH,A
002C E4                CLR     A
002D 93                MOVC    A,@A+DPTR
002E FE                MOV     R6,A
002F 7401              MOV     A,#01H
0031 93                MOVC    A,@A+DPTR
0032 AA06              MOV     R2,AR6
0034 F9                MOV     R1,A
0035 020000      E     LJMP    ?C?ICALL
                                           ; SOURCE LINE # 1702
                                           ; SOURCE LINE # 1704
                                           ; SOURCE LINE # 1706
0038         ?C0292:
                                           ; SOURCE LINE # 1708
0038 900000      E     MOV     DPTR,#PM2UnProcessCnt
003B E0                MOVX    A,@DPTR
003C C3                CLR     C
003D 94FF              SUBB    A,#0FFH
003F 5005              JNC     ?C0294
                                           ; SOURCE LINE # 1709
                                           ; SOURCE LINE # 1710
0041 E0                MOVX    A,@DPTR
0042 04                INC     A
0043 F0                MOVX    @DPTR,A
                                           ; SOURCE LINE # 1711
0044 80F2              SJMP    ?C0292
                                           ; SOURCE LINE # 1712
                                           ; SOURCE LINE # 1714
                                           ; SOURCE LINE # 1715
0046         ?C0294:
0046 22                RET     
             ; FUNCTION Service_PCI3 (END)


C51 COMPILER V7.06   OEM_PMC2                                                              07/06/2010 09:59:50 PAGE 67  


MODULE INFORMATION:   STATIC OVERLAYABLE
   CODE SIZE        =    885    ----
   CONSTANT SIZE    =    544    ----
   XDATA SIZE       =   ----       2
   PDATA SIZE       =   ----    ----
   DATA SIZE        =   ----    ----
   IDATA SIZE       =   ----    ----
   BIT SIZE         =   ----    ----
END OF MODULE INFORMATION.


C51 COMPILATION COMPLETE.  0 WARNING(S),  0 ERROR(S)
